(imatplotlib.font_manager
FontManager
p1
(dp2
S'afm_lookup_cache'
p3
(dp4
sS'ttflist'
p5
(lp6
ccopy_reg
_reconstructor
p7
(cmatplotlib.font_manager
FontEntry
p8
c__builtin__
object
p9
NtRp10
(dp11
S'style'
p12
S'normal'
p13
sS'name'
p14
S'cmb10'
p15
sS'weight'
p16
I400
sS'stretch'
p17
g13
sS'variant'
p18
g13
sS'fname'
p19
S'/usr/share/matplotlib/mpl-data/fonts/ttf/cmb10.ttf'
p20
sS'size'
p21
S'scalable'
p22
sbag7
(g8
g9
NtRp23
(dp24
g12
g13
sg14
S'cmex10'
p25
sg16
I400
sg17
g13
sg18
g13
sg19
S'/usr/share/matplotlib/mpl-data/fonts/ttf/cmex10.ttf'
p26
sg21
g22
sbag7
(g8
g9
NtRp27
(dp28
g12
S'italic'
p29
sg14
S'STIXNonUnicode'
p30
sg16
I400
sg17
g13
sg18
g13
sg19
S'/usr/share/matplotlib/mpl-data/fonts/ttf/STIXNonUniIta.ttf'
p31
sg21
g22
sbag7
(g8
g9
NtRp32
(dp33
g12
g13
sg14
S'STIXSizeOneSym'
p34
sg16
I400
sg17
g13
sg18
g13
sg19
S'/usr/share/matplotlib/mpl-data/fonts/ttf/STIXSizOneSymReg.ttf'
p35
sg21
g22
sbag7
(g8
g9
NtRp36
(dp37
g12
g13
sg14
S'STIXSizeThreeSym'
p38
sg16
I400
sg17
g13
sg18
g13
sg19
S'/usr/share/matplotlib/mpl-data/fonts/ttf/STIXSizThreeSymReg.ttf'
p39
sg21
g22
sbag7
(g8
g9
NtRp40
(dp41
g12
g13
sg14
S'STIXSizeTwoSym'
p42
sg16
I700
sg17
g13
sg18
g13
sg19
S'/usr/share/matplotlib/mpl-data/fonts/ttf/STIXSizTwoSymBol.ttf'
p43
sg21
g22
sbag7
(g8
g9
NtRp44
(dp45
g12
g13
sg14
S'cmtt10'
p46
sg16
I400
sg17
g13
sg18
g13
sg19
S'/usr/share/matplotlib/mpl-data/fonts/ttf/cmtt10.ttf'
p47
sg21
g22
sbag7
(g8
g9
NtRp48
(dp49
g12
g13
sg14
S'STIXGeneral'
p50
sg16
I400
sg17
g13
sg18
g13
sg19
S'/usr/share/matplotlib/mpl-data/fonts/ttf/STIXGeneral.ttf'
p51
sg21
g22
sbag7
(g8
g9
NtRp52
(dp53
g12
g13
sg14
S'STIXSizeThreeSym'
p54
sg16
I700
sg17
g13
sg18
g13
sg19
S'/usr/share/matplotlib/mpl-data/fonts/ttf/STIXSizThreeSymBol.ttf'
p55
sg21
g22
sbag7
(g8
g9
NtRp56
(dp57
g12
g13
sg14
S'STIXNonUnicode'
p58
sg16
I400
sg17
g13
sg18
g13
sg19
S'/usr/share/matplotlib/mpl-data/fonts/ttf/STIXNonUni.ttf'
p59
sg21
g22
sbag7
(g8
g9
NtRp60
(dp61
g12
g13
sg14
S'STIXSizeFiveSym'
p62
sg16
I400
sg17
g13
sg18
g13
sg19
S'/usr/share/matplotlib/mpl-data/fonts/ttf/STIXSizFiveSymReg.ttf'
p63
sg21
g22
sbag7
(g8
g9
NtRp64
(dp65
g12
g13
sg14
S'STIXSizeOneSym'
p66
sg16
I700
sg17
g13
sg18
g13
sg19
S'/usr/share/matplotlib/mpl-data/fonts/ttf/STIXSizOneSymBol.ttf'
p67
sg21
g22
sbag7
(g8
g9
NtRp68
(dp69
g12
g13
sg14
S'STIXGeneral'
p70
sg16
I700
sg17
g13
sg18
g13
sg19
S'/usr/share/matplotlib/mpl-data/fonts/ttf/STIXGeneralBol.ttf'
p71
sg21
g22
sbag7
(g8
g9
NtRp72
(dp73
g12
g13
sg14
S'cmr10'
p74
sg16
I400
sg17
g13
sg18
g13
sg19
S'/usr/share/matplotlib/mpl-data/fonts/ttf/cmr10.ttf'
p75
sg21
g22
sbag7
(g8
g9
NtRp76
(dp77
g12
g13
sg14
S'STIXSizeTwoSym'
p78
sg16
I400
sg17
g13
sg18
g13
sg19
S'/usr/share/matplotlib/mpl-data/fonts/ttf/STIXSizTwoSymReg.ttf'
p79
sg21
g22
sbag7
(g8
g9
NtRp80
(dp81
g12
g13
sg14
S'STIXSizeFourSym'
p82
sg16
I400
sg17
g13
sg18
g13
sg19
S'/usr/share/matplotlib/mpl-data/fonts/ttf/STIXSizFourSymReg.ttf'
p83
sg21
g22
sbag7
(g8
g9
NtRp84
(dp85
g12
g13
sg14
S'cmsy10'
p86
sg16
I400
sg17
g13
sg18
g13
sg19
S'/usr/share/matplotlib/mpl-data/fonts/ttf/cmsy10.ttf'
p87
sg21
g22
sbag7
(g8
g9
NtRp88
(dp89
g12
g29
sg14
S'STIXNonUnicode'
p90
sg16
I700
sg17
g13
sg18
g13
sg19
S'/usr/share/matplotlib/mpl-data/fonts/ttf/STIXNonUniBolIta.ttf'
p91
sg21
g22
sbag7
(g8
g9
NtRp92
(dp93
g12
g13
sg14
S'cmss10'
p94
sg16
I400
sg17
g13
sg18
g13
sg19
S'/usr/share/matplotlib/mpl-data/fonts/ttf/cmss10.ttf'
p95
sg21
g22
sbag7
(g8
g9
NtRp96
(dp97
g12
g13
sg14
S'STIXSizeFourSym'
p98
sg16
I700
sg17
g13
sg18
g13
sg19
S'/usr/share/matplotlib/mpl-data/fonts/ttf/STIXSizFourSymBol.ttf'
p99
sg21
g22
sbag7
(g8
g9
NtRp100
(dp101
g12
g29
sg14
S'STIXGeneral'
p102
sg16
I400
sg17
g13
sg18
g13
sg19
S'/usr/share/matplotlib/mpl-data/fonts/ttf/STIXGeneralItalic.ttf'
p103
sg21
g22
sbag7
(g8
g9
NtRp104
(dp105
g12
g13
sg14
S'cmmi10'
p106
sg16
I400
sg17
g13
sg18
g13
sg19
S'/usr/share/matplotlib/mpl-data/fonts/ttf/cmmi10.ttf'
p107
sg21
g22
sbag7
(g8
g9
NtRp108
(dp109
g12
g13
sg14
S'STIXNonUnicode'
p110
sg16
I700
sg17
g13
sg18
g13
sg19
S'/usr/share/matplotlib/mpl-data/fonts/ttf/STIXNonUniBol.ttf'
p111
sg21
g22
sbag7
(g8
g9
NtRp112
(dp113
g12
g29
sg14
S'STIXGeneral'
p114
sg16
I700
sg17
g13
sg18
g13
sg19
S'/usr/share/matplotlib/mpl-data/fonts/ttf/STIXGeneralBolIta.ttf'
p115
sg21
g22
sbag7
(g8
g9
NtRp116
(dp117
g12
g13
sg14
S'STIXIntegralsUp'
p118
sg16
I400
sg17
g13
sg18
g13
sg19
S'/usr/share/fonts/opentype/stix/STIXIntegralsUp-Regular.otf'
p119
sg21
g22
sbag7
(g8
g9
NtRp120
(dp121
g12
g13
sg14
S'KacstTitle'
p122
sg16
I400
sg17
g13
sg18
g13
sg19
S'/usr/share/fonts/truetype/kacst/KacstTitle.ttf'
p123
sg21
g22
sbag7
(g8
g9
NtRp124
(dp125
g12
g29
sg14
S'Latin Modern Roman'
p126
sg16
I500
sg17
g13
sg18
g13
sg19
S'/usr/share/texmf/fonts/opentype/public/lm/lmroman8-italic.otf'
p127
sg21
g22
sbag7
(g8
g9
NtRp128
(dp129
g12
g13
sg14
S'Latin Modern Mono Caps'
p130
sg16
I400
sg17
g13
sg18
g13
sg19
S'/usr/share/texmf/fonts/opentype/public/lm/lmmonocaps10-regular.otf'
p131
sg21
g22
sbag7
(g8
g9
NtRp132
(dp133
g12
g13
sg14
S'KacstScreen'
p134
sg16
I400
sg17
g13
sg18
g13
sg19
S'/usr/share/fonts/truetype/kacst/KacstScreen.ttf'
p135
sg21
g22
sbag7
(g8
g9
NtRp136
(dp137
g12
g13
sg14
S'MathJax_Math'
p138
sg16
I400
sg17
g13
sg18
g13
sg19
S'/usr/share/fonts/opentype/mathjax/MathJax_Math-Regular.otf'
p139
sg21
g22
sbag7
(g8
g9
NtRp140
(dp141
g12
g13
sg14
S'Droid Sans Ethiopic'
p142
sg16
I700
sg17
g13
sg18
g13
sg19
S'/usr/share/fonts/truetype/droid/DroidSansEthiopic-Bold.ttf'
p143
sg21
g22
sbag7
(g8
g9
NtRp144
(dp145
g12
S'oblique'
p146
sg14
S'Norasi'
p147
sg16
I400
sg17
g13
sg18
g13
sg19
S'/usr/share/fonts/truetype/tlwg/Norasi-Oblique.ttf'
p148
sg21
g22
sbag7
(g8
g9
NtRp149
(dp150
g12
g29
sg14
S'Latin Modern Roman'
p151
sg16
I500
sg17
g13
sg18
g13
sg19
S'/usr/share/texmf/fonts/opentype/public/lm/lmroman10-italic.otf'
p152
sg21
g22
sbag7
(g8
g9
NtRp153
(dp154
g12
g13
sg14
S'TakaoPGothic'
p155
sg16
I400
sg17
g13
sg18
g13
sg19
S'/usr/share/fonts/truetype/fonts-japanese-gothic.ttf'
p156
sg21
g22
sbag7
(g8
g9
NtRp157
(dp158
g12
g13
sg14
S'Liberation Serif'
p159
sg16
I400
sg17
g13
sg18
g13
sg19
S'/usr/share/fonts/truetype/ttf-liberation/LiberationSerif-Regular.ttf'
p160
sg21
g22
sbag7
(g8
g9
NtRp161
(dp162
g12
g13
sg14
S'UnDotum'
p163
sg16
I400
sg17
g13
sg18
g13
sg19
S'/usr/share/fonts/truetype/unfonts-core/UnDotum.ttf'
p164
sg21
g22
sbag7
(g8
g9
NtRp165
(dp166
g12
g13
sg14
S'Linux Libertine O'
p167
sg16
I700
sg17
g13
sg18
g13
sg19
S'/usr/share/fonts/opentype/linux-libertine/LinLibertine_RZ.otf'
p168
sg21
g22
sbag7
(g8
g9
NtRp169
(dp170
g12
g146
sg14
S'Waree'
p171
sg16
I400
sg17
g13
sg18
g13
sg19
S'/usr/share/fonts/truetype/tlwg/Waree-Oblique.ttf'
p172
sg21
g22
sbag7
(g8
g9
NtRp173
(dp174
g12
g29
sg14
S'MathJax_Main'
p175
sg16
I400
sg17
g13
sg18
g13
sg19
S'/usr/share/fonts/opentype/mathjax/MathJax_Main-Italic.otf'
p176
sg21
g22
sbag7
(g8
g9
NtRp177
(dp178
g12
g13
sg14
S'Latin Modern Mono'
p179
sg16
I400
sg17
g13
sg18
g13
sg19
S'/usr/share/texmf/fonts/opentype/public/lm/lmmono10-regular.otf'
p180
sg21
g22
sbag7
(g8
g9
NtRp181
(dp182
g12
g29
sg14
S'Georgia'
p183
sg16
I700
sg17
g13
sg18
g13
sg19
S'/usr/share/fonts/truetype/msttcorefonts/Georgia_Bold_Italic.ttf'
p184
sg21
g22
sbag7
(g8
g9
NtRp185
(dp186
g12
g13
sg14
S'DejaVu Serif'
p187
sg16
I700
sg17
S'condensed'
p188
sg18
g13
sg19
S'/usr/share/fonts/truetype/dejavu/DejaVuSerifCondensed-Bold.ttf'
p189
sg21
g22
sbag7
(g8
g9
NtRp190
(dp191
g12
g146
sg14
S'DejaVu Sans'
p192
sg16
I400
sg17
g13
sg18
g13
sg19
S'/usr/share/fonts/truetype/ttf-dejavu/DejaVuSans-Oblique.ttf'
p193
sg21
g22
sbag7
(g8
g9
NtRp194
(dp195
g12
g146
sg14
S'DejaVu Sans'
p196
sg16
I700
sg17
g13
sg18
g13
sg19
S'/usr/share/fonts/truetype/ttf-dejavu/DejaVuSans-BoldOblique.ttf'
p197
sg21
g22
sbag7
(g8
g9
NtRp198
(dp199
g12
g13
sg14
S'Latin Modern Roman'
p200
sg16
I400
sg17
g13
sg18
g13
sg19
S'/usr/share/texmf/fonts/opentype/public/lm/lmroman12-regular.otf'
p201
sg21
g22
sbag7
(g8
g9
NtRp202
(dp203
g12
g13
sg14
S'Tlwg Typist'
p204
sg16
I400
sg17
g13
sg18
g13
sg19
S'/usr/share/fonts/truetype/tlwg/TlwgTypist.ttf'
p205
sg21
g22
sbag7
(g8
g9
NtRp206
(dp207
g12
g13
sg14
S'NanumGothic'
p208
sg16
I400
sg17
g13
sg18
g13
sg19
S'/usr/share/fonts/truetype/nanum/NanumGothic.ttf'
p209
sg21
g22
sbag7
(g8
g9
NtRp210
(dp211
g12
g13
sg14
S'Impact'
p212
sg16
I400
sg17
g13
sg18
g13
sg19
S'/usr/share/fonts/truetype/msttcorefonts/Impact.ttf'
p213
sg21
g22
sbag7
(g8
g9
NtRp214
(dp215
g12
g13
sg14
S'Droid Arabic Naskh'
p216
sg16
I400
sg17
g13
sg18
g13
sg19
S'/usr/share/fonts/truetype/droid/DroidNaskh-Regular.ttf'
p217
sg21
g22
sbag7
(g8
g9
NtRp218
(dp219
g12
g29
sg14
S'Gentium'
p220
sg16
I400
sg17
g13
sg18
g13
sg19
S'/usr/share/fonts/truetype/gentium/GenI102.ttf'
p221
sg21
g22
sbag7
(g8
g9
NtRp222
(dp223
g12
g13
sg14
S'Andale Mono'
p224
sg16
I400
sg17
g13
sg18
g13
sg19
S'/usr/share/fonts/truetype/msttcorefonts/andalemo.ttf'
p225
sg21
g22
sbag7
(g8
g9
NtRp226
(dp227
g12
g29
sg14
S'Arial'
p228
sg16
I700
sg17
g13
sg18
g13
sg19
S'/usr/share/fonts/truetype/msttcorefonts/arialbi.ttf'
p229
sg21
g22
sbag7
(g8
g9
NtRp230
(dp231
g12
g29
sg14
S'Liberation Sans'
p232
sg16
I400
sg17
g13
sg18
g13
sg19
S'/usr/share/fonts/truetype/liberation/LiberationSans-Italic.ttf'
p233
sg21
g22
sbag7
(g8
g9
NtRp234
(dp235
g12
g146
sg14
S'DejaVu Sans Mono'
p236
sg16
I400
sg17
g13
sg18
g13
sg19
S'/usr/share/fonts/truetype/dejavu/DejaVuSansMono-Oblique.ttf'
p237
sg21
g22
sbag7
(g8
g9
NtRp238
(dp239
g12
g13
sg14
S'STIXIntegralsUp'
p240
sg16
I700
sg17
g13
sg18
g13
sg19
S'/usr/share/fonts/opentype/stix/STIXIntegralsUp-Bold.otf'
p241
sg21
g22
sbag7
(g8
g9
NtRp242
(dp243
g12
g13
sg14
S'Latin Modern Roman'
p244
sg16
I700
sg17
g13
sg18
g13
sg19
S'/usr/share/texmf/fonts/opentype/public/lm/lmroman12-bold.otf'
p245
sg21
g22
sbag7
(g8
g9
NtRp246
(dp247
g12
g13
sg14
S'UnBatang'
p248
sg16
I400
sg17
g13
sg18
g13
sg19
S'/usr/share/fonts/truetype/unfonts-core/UnBatang.ttf'
p249
sg21
g22
sbag7
(g8
g9
NtRp250
(dp251
g12
g13
sg14
S'Courier New'
p252
sg16
I700
sg17
g13
sg18
g13
sg19
S'/usr/share/fonts/truetype/msttcorefonts/courbd.ttf'
p253
sg21
g22
sbag7
(g8
g9
NtRp254
(dp255
g12
g13
sg14
S'FontAwesome'
p256
sg16
I400
sg17
g13
sg18
g13
sg19
S'/usr/share/fonts/truetype/font-awesome/fontawesome-webfont.ttf'
p257
sg21
g22
sbag7
(g8
g9
NtRp258
(dp259
g12
g13
sg14
S'Trebuchet MS'
p260
sg16
I400
sg17
g13
sg18
g13
sg19
S'/usr/share/fonts/truetype/msttcorefonts/Trebuchet_MS.ttf'
p261
sg21
g22
sbag7
(g8
g9
NtRp262
(dp263
g12
g13
sg14
S'Droid Sans Hebrew'
p264
sg16
I700
sg17
g13
sg18
g13
sg19
S'/usr/share/fonts/truetype/droid/DroidSansHebrew-Bold.ttf'
p265
sg21
g22
sbag7
(g8
g9
NtRp266
(dp267
g12
g13
sg14
S'Droid Arabic Naskh'
p268
sg16
I700
sg17
g13
sg18
g13
sg19
S'/usr/share/fonts/truetype/droid/DroidNaskh-Bold.ttf'
p269
sg21
g22
sbag7
(g8
g9
NtRp270
(dp271
g12
g13
sg14
S'Ubuntu Mono'
p272
sg16
I400
sg17
g13
sg18
g13
sg19
S'/usr/share/fonts/truetype/ubuntu-font-family/UbuntuMono-R.ttf'
p273
sg21
g22
sbag7
(g8
g9
NtRp274
(dp275
g12
g29
sg14
S'Trebuchet MS'
p276
sg16
I400
sg17
g13
sg18
g13
sg19
S'/usr/share/fonts/truetype/msttcorefonts/Trebuchet_MS_Italic.ttf'
p277
sg21
g22
sbag7
(g8
g9
NtRp278
(dp279
g12
g13
sg14
S'Liberation Serif'
p280
sg16
I700
sg17
g13
sg18
g13
sg19
S'/usr/share/fonts/truetype/ttf-liberation/LiberationSerif-Bold.ttf'
p281
sg21
g22
sbag7
(g8
g9
NtRp282
(dp283
g12
g13
sg14
S'UnDinaru'
p284
sg16
I400
sg17
g13
sg18
g13
sg19
S'/usr/share/fonts/truetype/unfonts-core/UnDinaru.ttf'
p285
sg21
g22
sbag7
(g8
g9
NtRp286
(dp287
g12
g13
sg14
S'Droid Serif'
p288
sg16
I400
sg17
g13
sg18
g13
sg19
S'/usr/share/fonts/truetype/droid/DroidSerif-Regular.ttf'
p289
sg21
g22
sbag7
(g8
g9
NtRp290
(dp291
g12
g13
sg14
S'Latin Modern Roman'
p292
sg16
I400
sg17
g13
sg18
g13
sg19
S'/usr/share/texmf/fonts/opentype/public/lm/lmroman5-regular.otf'
p293
sg21
g22
sbag7
(g8
g9
NtRp294
(dp295
g12
g13
sg14
S'Arial'
p296
sg16
I400
sg17
g13
sg18
g13
sg19
S'/usr/share/fonts/truetype/msttcorefonts/Arial.ttf'
p297
sg21
g22
sbag7
(g8
g9
NtRp298
(dp299
g12
g13
sg14
S'Times New Roman'
p300
sg16
I500
sg17
g13
sg18
g13
sg19
S'/usr/share/fonts/truetype/msttcorefonts/times.ttf'
p301
sg21
g22
sbag7
(g8
g9
NtRp302
(dp303
g12
g13
sg14
S'UnGraphic'
p304
sg16
I700
sg17
g13
sg18
g13
sg19
S'/usr/share/fonts/truetype/unfonts-core/UnGraphicBold.ttf'
p305
sg21
g22
sbag7
(g8
g9
NtRp306
(dp307
g12
g29
sg14
S'Latin Modern Mono'
p308
sg16
I400
sg17
g13
sg18
g13
sg19
S'/usr/share/texmf/fonts/opentype/public/lm/lmmono10-italic.otf'
p309
sg21
g22
sbag7
(g8
g9
NtRp310
(dp311
g12
g13
sg14
S'KacstNaskh'
p312
sg16
I400
sg17
g13
sg18
g13
sg19
S'/usr/share/fonts/truetype/kacst/KacstNaskh.ttf'
p313
sg21
g22
sbag7
(g8
g9
NtRp314
(dp315
g12
g13
sg14
S'Trebuchet MS'
p316
sg16
I400
sg17
g13
sg18
g13
sg19
S'/usr/share/fonts/truetype/msttcorefonts/trebuc.ttf'
p317
sg21
g22
sbag7
(g8
g9
NtRp318
(dp319
g12
g29
sg14
S'Kinnari'
p320
sg16
I700
sg17
g13
sg18
g13
sg19
S'/usr/share/fonts/truetype/tlwg/Kinnari-BoldItalic.ttf'
p321
sg21
g22
sbag7
(g8
g9
NtRp322
(dp323
g12
g13
sg14
S'Sawasdee'
p324
sg16
I400
sg17
g13
sg18
g13
sg19
S'/usr/share/fonts/truetype/tlwg/Sawasdee.ttf'
p325
sg21
g22
sbag7
(g8
g9
NtRp326
(dp327
g12
g13
sg14
S'MathJax_Fraktur'
p328
sg16
I700
sg17
g13
sg18
g13
sg19
S'/usr/share/fonts/opentype/mathjax/MathJax_Fraktur-Bold.otf'
p329
sg21
g22
sbag7
(g8
g9
NtRp330
(dp331
g12
g146
sg14
S'DejaVu Sans Mono'
p332
sg16
I700
sg17
g13
sg18
g13
sg19
S'/usr/share/fonts/truetype/dejavu/DejaVuSansMono-BoldOblique.ttf'
p333
sg21
g22
sbag7
(g8
g9
NtRp334
(dp335
g12
g13
sg14
S'UnDinaru'
p336
sg16
I700
sg17
g13
sg18
g13
sg19
S'/usr/share/fonts/truetype/unfonts-core/UnDinaruBold.ttf'
p337
sg21
g22
sbag7
(g8
g9
NtRp338
(dp339
g12
g13
sg14
S'FreeSans'
p340
sg16
I700
sg17
g13
sg18
g13
sg19
S'/usr/share/fonts/truetype/freefont/FreeSansBold.ttf'
p341
sg21
g22
sbag7
(g8
g9
NtRp342
(dp343
g12
g13
sg14
S'Latin Modern Mono'
p344
sg16
I400
sg17
g13
sg18
g13
sg19
S'/usr/share/texmf/fonts/opentype/public/lm/lmmono8-regular.otf'
p345
sg21
g22
sbag7
(g8
g9
NtRp346
(dp347
g12
g13
sg14
S'Purisa'
p348
sg16
I700
sg17
g13
sg18
g13
sg19
S'/usr/share/fonts/truetype/tlwg/Purisa-Bold.ttf'
p349
sg21
g22
sbag7
(g8
g9
NtRp350
(dp351
g12
g13
sg14
S'Tlwg Typist'
p352
sg16
I700
sg17
g13
sg18
g13
sg19
S'/usr/share/fonts/truetype/tlwg/TlwgTypist-Bold.ttf'
p353
sg21
g22
sbag7
(g8
g9
NtRp354
(dp355
g12
g146
sg14
S'Latin Modern Mono Prop'
p356
sg16
I400
sg17
g13
sg18
g13
sg19
S'/usr/share/texmf/fonts/opentype/public/lm/lmmonoprop10-oblique.otf'
p357
sg21
g22
sbag7
(g8
g9
NtRp358
(dp359
g12
g13
sg14
S'KacstPoster'
p360
sg16
I400
sg17
g13
sg18
g13
sg19
S'/usr/share/fonts/truetype/kacst/KacstPoster.ttf'
p361
sg21
g22
sbag7
(g8
g9
NtRp362
(dp363
g12
g13
sg14
S'Purisa'
p364
sg16
I400
sg17
g13
sg18
g13
sg19
S'/usr/share/fonts/truetype/tlwg/Purisa.ttf'
p365
sg21
g22
sbag7
(g8
g9
NtRp366
(dp367
g12
g13
sg14
S'STIXSizeOneSym'
p368
sg16
I700
sg17
g13
sg18
g13
sg19
S'/usr/share/fonts/opentype/stix/STIXSizeOneSym-Bold.otf'
p369
sg21
g22
sbag7
(g8
g9
NtRp370
(dp371
g12
g13
sg14
S'Latin Modern Roman Dunhill'
p372
sg16
I400
sg17
g13
sg18
g13
sg19
S'/usr/share/texmf/fonts/opentype/public/lm/lmromandunh10-regular.otf'
p373
sg21
g22
sbag7
(g8
g9
NtRp374
(dp375
g12
g29
sg14
S'Georgia'
p376
sg16
I400
sg17
g13
sg18
g13
sg19
S'/usr/share/fonts/truetype/msttcorefonts/Georgia_Italic.ttf'
p377
sg21
g22
sbag7
(g8
g9
NtRp378
(dp379
g12
g29
sg14
S'Ubuntu'
p380
sg16
I200
sg17
g13
sg18
g13
sg19
S'/usr/share/fonts/truetype/ubuntu-font-family/Ubuntu-LI.ttf'
p381
sg21
g22
sbag7
(g8
g9
NtRp382
(dp383
g12
g13
sg14
S'Droid Sans Mono'
p384
sg16
I400
sg17
g13
sg18
g13
sg19
S'/usr/share/fonts/truetype/droid/DroidSansMono.ttf'
p385
sg21
g22
sbag7
(g8
g9
NtRp386
(dp387
g12
g146
sg14
S'Umpush'
p388
sg16
I400
sg17
g13
sg18
g13
sg19
S'/usr/share/fonts/truetype/tlwg/Umpush-Oblique.ttf'
p389
sg21
g22
sbag7
(g8
g9
NtRp390
(dp391
g12
g13
sg14
S'NanumGothic'
p392
sg16
I700
sg17
g13
sg18
g13
sg19
S'/usr/share/fonts/truetype/nanum/NanumGothicBold.ttf'
p393
sg21
g22
sbag7
(g8
g9
NtRp394
(dp395
g12
g29
sg14
S'Liberation Mono'
p396
sg16
I700
sg17
g13
sg18
g13
sg19
S'/usr/share/fonts/truetype/liberation/LiberationMono-BoldItalic.ttf'
p397
sg21
g22
sbag7
(g8
g9
NtRp398
(dp399
g12
g13
sg14
S'DejaVu Sans'
p400
sg16
I400
sg17
g13
sg18
g13
sg19
S'/usr/share/fonts/truetype/ttf-dejavu/DejaVuSans.ttf'
p401
sg21
g22
sbag7
(g8
g9
NtRp402
(dp403
g12
g13
sg14
S'Ubuntu Mono'
p404
sg16
I700
sg17
g13
sg18
g13
sg19
S'/usr/share/fonts/truetype/ubuntu-font-family/UbuntuMono-B.ttf'
p405
sg21
g22
sbag7
(g8
g9
NtRp406
(dp407
g12
g13
sg14
S'IPAGothic'
p408
sg16
I400
sg17
g13
sg18
g13
sg19
S'/usr/share/fonts/opentype/ipafont-gothic/ipag.ttf'
p409
sg21
g22
sbag7
(g8
g9
NtRp410
(dp411
g12
g13
sg14
S'OpenSymbol'
p412
sg16
I400
sg17
g13
sg18
g13
sg19
S'/usr/share/fonts/truetype/openoffice/opens___.ttf'
p413
sg21
g22
sbag7
(g8
g9
NtRp414
(dp415
g12
g29
sg14
S'Norasi'
p416
sg16
I400
sg17
g13
sg18
g13
sg19
S'/usr/share/fonts/truetype/tlwg/Norasi-Italic.ttf'
p417
sg21
g22
sbag7
(g8
g9
NtRp418
(dp419
g12
g13
sg14
S'Droid Sans Fallback'
p420
sg16
I400
sg17
g13
sg18
g13
sg19
S'/usr/share/fonts/truetype/droid/DroidSansFallbackFull.ttf'
p421
sg21
g22
sbag7
(g8
g9
NtRp422
(dp423
g12
g13
sg14
S'Khmer OS System'
p424
sg16
I400
sg17
g13
sg18
g13
sg19
S'/usr/share/fonts/truetype/ttf-khmeros-core/KhmerOSsys.ttf'
p425
sg21
g22
sbag7
(g8
g9
NtRp426
(dp427
g12
g146
sg14
S'Tlwg Typist'
p428
sg16
I400
sg17
g13
sg18
g13
sg19
S'/usr/share/fonts/truetype/tlwg/TlwgTypist-Oblique.ttf'
p429
sg21
g22
sbag7
(g8
g9
NtRp430
(dp431
g12
g13
sg14
S'Norasi'
p432
sg16
I400
sg17
g13
sg18
g13
sg19
S'/usr/share/fonts/truetype/tlwg/Norasi.ttf'
p433
sg21
g22
sbag7
(g8
g9
NtRp434
(dp435
g12
g13
sg14
S'DejaVu Serif'
p436
sg16
I400
sg17
g13
sg18
g13
sg19
S'/usr/share/fonts/truetype/dejavu/DejaVuSerif.ttf'
p437
sg21
g22
sbag7
(g8
g9
NtRp438
(dp439
g12
g29
sg14
S'Latin Modern Roman'
p440
sg16
I500
sg17
g13
sg18
g13
sg19
S'/usr/share/texmf/fonts/opentype/public/lm/lmroman12-italic.otf'
p441
sg21
g22
sbag7
(g8
g9
NtRp442
(dp443
g12
g13
sg14
S'Mukti Narrow'
p444
sg16
I700
sg17
g13
sg18
g13
sg19
S'/usr/share/fonts/truetype/ttf-indic-fonts-core/MuktiNarrowBold.ttf'
p445
sg21
g22
sbag7
(g8
g9
NtRp446
(dp447
g12
g13
sg14
S'Verdana'
p448
sg16
I700
sg17
g13
sg18
g13
sg19
S'/usr/share/fonts/truetype/msttcorefonts/verdanab.ttf'
p449
sg21
g22
sbag7
(g8
g9
NtRp450
(dp451
g12
g13
sg14
S'Latin Modern Sans'
p452
sg16
I400
sg17
g13
sg18
g13
sg19
S'/usr/share/texmf/fonts/opentype/public/lm/lmsans12-regular.otf'
p453
sg21
g22
sbag7
(g8
g9
NtRp454
(dp455
g12
g13
sg14
S'FreeSerif'
p456
sg16
I700
sg17
g13
sg18
g13
sg19
S'/usr/share/fonts/truetype/freefont/FreeSerifBold.ttf'
p457
sg21
g22
sbag7
(g8
g9
NtRp458
(dp459
g12
g29
sg14
S'Ubuntu'
p460
sg16
I400
sg17
g13
sg18
g13
sg19
S'/usr/share/fonts/truetype/ubuntu-font-family/Ubuntu-RI.ttf'
p461
sg21
g22
sbag7
(g8
g9
NtRp462
(dp463
g12
g13
sg14
S'NanumBarunGothic'
p464
sg16
I400
sg17
g13
sg18
g13
sg19
S'/usr/share/fonts/truetype/nanum/NanumBarunGothic.ttf'
p465
sg21
g22
sbag7
(g8
g9
NtRp466
(dp467
g12
g29
sg14
S'Latin Modern Roman'
p468
sg16
I500
sg17
g13
sg18
g13
sg19
S'/usr/share/texmf/fonts/opentype/public/lm/lmroman7-italic.otf'
p469
sg21
g22
sbag7
(g8
g9
NtRp470
(dp471
g12
g13
sg14
S'UnDinaru'
p472
sg16
I200
sg17
g13
sg18
g13
sg19
S'/usr/share/fonts/truetype/unfonts-core/UnDinaruLight.ttf'
p473
sg21
g22
sbag7
(g8
g9
NtRp474
(dp475
g12
g13
sg14
S'Latin Modern Math'
p476
sg16
I400
sg17
g13
sg18
g13
sg19
S'/usr/share/texmf/fonts/opentype/public/lm-math/latinmodernmath-regular.otf'
p477
sg21
g22
sbag7
(g8
g9
NtRp478
(dp479
g12
g29
sg14
S'Latin Modern Roman'
p480
sg16
I500
sg17
g13
sg18
g13
sg19
S'/usr/share/texmf/fonts/opentype/public/lm/lmroman9-italic.otf'
p481
sg21
g22
sbag7
(g8
g9
NtRp482
(dp483
g12
g13
sg14
S'MathJax_WinChrome'
p484
sg16
I400
sg17
g13
sg18
g13
sg19
S'/usr/share/fonts/opentype/mathjax/MathJax_WinChrome-Regular.otf'
p485
sg21
g22
sbag7
(g8
g9
NtRp486
(dp487
g12
g13
sg14
S'MathJax_SansSerif'
p488
sg16
I700
sg17
g13
sg18
g13
sg19
S'/usr/share/fonts/opentype/mathjax/MathJax_SansSerif-Bold.otf'
p489
sg21
g22
sbag7
(g8
g9
NtRp490
(dp491
g12
g29
sg14
S'Ubuntu Mono'
p492
sg16
I700
sg17
g13
sg18
g13
sg19
S'/usr/share/fonts/truetype/ubuntu-font-family/UbuntuMono-BI.ttf'
p493
sg21
g22
sbag7
(g8
g9
NtRp494
(dp495
g12
g13
sg14
S'Lohit Tamil'
p496
sg16
I400
sg17
g13
sg18
g13
sg19
S'/usr/share/fonts/truetype/ttf-indic-fonts-core/lohit_ta.ttf'
p497
sg21
g22
sbag7
(g8
g9
NtRp498
(dp499
g12
g13
sg14
S'Kinnari'
p500
sg16
I400
sg17
g13
sg18
g13
sg19
S'/usr/share/fonts/truetype/tlwg/Kinnari.ttf'
p501
sg21
g22
sbag7
(g8
g9
NtRp502
(dp503
g12
g13
sg14
S'STIXGeneral'
p504
sg16
I400
sg17
g13
sg18
g13
sg19
S'/usr/share/fonts/opentype/stix/STIXGeneral-Regular.otf'
p505
sg21
g22
sbag7
(g8
g9
NtRp506
(dp507
g12
g13
sg14
S'Times New Roman'
p508
sg16
I700
sg17
g13
sg18
g13
sg19
S'/usr/share/fonts/truetype/msttcorefonts/timesbd.ttf'
p509
sg21
g22
sbag7
(g8
g9
NtRp510
(dp511
g12
g13
sg14
S'Trebuchet MS'
p512
sg16
I700
sg17
g13
sg18
g13
sg19
S'/usr/share/fonts/truetype/msttcorefonts/Trebuchet_MS_Bold.ttf'
p513
sg21
g22
sbag7
(g8
g9
NtRp514
(dp515
g12
g13
sg14
S'Latin Modern Roman'
p516
sg16
I700
sg17
g13
sg18
g13
sg19
S'/usr/share/texmf/fonts/opentype/public/lm/lmroman8-bold.otf'
p517
sg21
g22
sbag7
(g8
g9
NtRp518
(dp519
g12
g13
sg14
S'TlwgMono'
p520
sg16
I400
sg17
g13
sg18
g13
sg19
S'/usr/share/fonts/truetype/tlwg/TlwgMono.ttf'
p521
sg21
g22
sbag7
(g8
g9
NtRp522
(dp523
g12
g13
sg14
S'Latin Modern Roman Caps'
p524
sg16
I400
sg17
g13
sg18
g13
sg19
S'/usr/share/texmf/fonts/opentype/public/lm/lmromancaps10-regular.otf'
p525
sg21
g22
sbag7
(g8
g9
NtRp526
(dp527
g12
g13
sg14
S'Arial'
p528
sg16
I700
sg17
g13
sg18
g13
sg19
S'/usr/share/fonts/truetype/msttcorefonts/Arial_Bold.ttf'
p529
sg21
g22
sbag7
(g8
g9
NtRp530
(dp531
g12
g29
sg14
S'Times New Roman'
p532
sg16
I700
sg17
g13
sg18
g13
sg19
S'/usr/share/fonts/truetype/msttcorefonts/timesbi.ttf'
p533
sg21
g22
sbag7
(g8
g9
NtRp534
(dp535
g12
g146
sg14
S'Purisa'
p536
sg16
I400
sg17
g13
sg18
g13
sg19
S'/usr/share/fonts/truetype/tlwg/Purisa-Oblique.ttf'
p537
sg21
g22
sbag7
(g8
g9
NtRp538
(dp539
g12
g29
sg14
S'Kinnari'
p540
sg16
I400
sg17
g13
sg18
g13
sg19
S'/usr/share/fonts/truetype/tlwg/Kinnari-Italic.ttf'
p541
sg21
g22
sbag7
(g8
g9
NtRp542
(dp543
g12
g13
sg14
S'DejaVu Serif'
p544
sg16
I400
sg17
g188
sg18
g13
sg19
S'/usr/share/fonts/truetype/ttf-dejavu/DejaVuSerifCondensed.ttf'
p545
sg21
g22
sbag7
(g8
g9
NtRp546
(dp547
g12
g13
sg14
S'STIXSizeOneSym'
p548
sg16
I400
sg17
g13
sg18
g13
sg19
S'/usr/share/fonts/opentype/stix/STIXSizeOneSym-Regular.otf'
p549
sg21
g22
sbag7
(g8
g9
NtRp550
(dp551
g12
g13
sg14
S'FreeMono'
p552
sg16
I700
sg17
g13
sg18
g13
sg19
S'/usr/share/fonts/truetype/freefont/FreeMonoBold.ttf'
p553
sg21
g22
sbag7
(g8
g9
NtRp554
(dp555
g12
g13
sg14
S'Impact'
p556
sg16
I400
sg17
g13
sg18
g13
sg19
S'/usr/share/fonts/truetype/msttcorefonts/impact.ttf'
p557
sg21
g22
sbag7
(g8
g9
NtRp558
(dp559
g12
g29
sg14
S'Ubuntu Mono'
p560
sg16
I400
sg17
g13
sg18
g13
sg19
S'/usr/share/fonts/truetype/ubuntu-font-family/UbuntuMono-RI.ttf'
p561
sg21
g22
sbag7
(g8
g9
NtRp562
(dp563
g12
g13
sg14
S'DejaVu Sans'
p564
sg16
I700
sg17
g188
sg18
g13
sg19
S'/usr/share/fonts/truetype/dejavu/DejaVuSansCondensed-Bold.ttf'
p565
sg21
g22
sbag7
(g8
g9
NtRp566
(dp567
g12
g146
sg14
S'TlwgTypewriter'
p568
sg16
I400
sg17
g13
sg18
g13
sg19
S'/usr/share/fonts/truetype/tlwg/TlwgTypewriter-Oblique.ttf'
p569
sg21
g22
sbag7
(g8
g9
NtRp570
(dp571
g12
g146
sg14
S'Latin Modern Mono Prop Light'
p572
sg16
I700
sg17
g13
sg18
g13
sg19
S'/usr/share/texmf/fonts/opentype/public/lm/lmmonoproplt10-boldoblique.otf'
p573
sg21
g22
sbag7
(g8
g9
NtRp574
(dp575
g12
g13
sg14
S'msam10'
p576
sg16
I400
sg17
g13
sg18
g13
sg19
S'/usr/share/fonts/truetype/lyx/msam10.ttf'
p577
sg21
g22
sbag7
(g8
g9
NtRp578
(dp579
g12
g13
sg14
S'Ubuntu'
p580
sg16
I500
sg17
g13
sg18
g13
sg19
S'/usr/share/fonts/truetype/ubuntu-font-family/Ubuntu-M.ttf'
p581
sg21
g22
sbag7
(g8
g9
NtRp582
(dp583
g12
g13
sg14
S'Garuda'
p584
sg16
I700
sg17
g13
sg18
g13
sg19
S'/usr/share/fonts/truetype/tlwg/Garuda-Bold.ttf'
p585
sg21
g22
sbag7
(g8
g9
NtRp586
(dp587
g12
g13
sg14
S'KacstLetter'
p588
sg16
I400
sg17
g13
sg18
g13
sg19
S'/usr/share/fonts/truetype/kacst/KacstLetter.ttf'
p589
sg21
g22
sbag7
(g8
g9
NtRp590
(dp591
g12
g29
sg14
S'Verdana'
p592
sg16
I700
sg17
g13
sg18
g13
sg19
S'/usr/share/fonts/truetype/msttcorefonts/verdanaz.ttf'
p593
sg21
g22
sbag7
(g8
g9
NtRp594
(dp595
g12
g29
sg14
S'Ubuntu'
p596
sg16
I700
sg17
g13
sg18
g13
sg19
S'/usr/share/fonts/truetype/ubuntu-font-family/Ubuntu-BI.ttf'
p597
sg21
g22
sbag7
(g8
g9
NtRp598
(dp599
g12
g29
sg14
S'Linux Libertine O'
p600
sg16
I700
sg17
g13
sg18
g13
sg19
S'/usr/share/fonts/opentype/linux-libertine/LinLibertine_RZI.otf'
p601
sg21
g22
sbag7
(g8
g9
NtRp602
(dp603
g12
g29
sg14
S'DejaVu Serif'
p604
sg16
I400
sg17
g13
sg18
g13
sg19
S'/usr/share/fonts/truetype/ttf-dejavu/DejaVuSerif-Italic.ttf'
p605
sg21
g22
sbag7
(g8
g9
NtRp606
(dp607
g12
g29
sg14
S'STIXGeneral'
p608
sg16
I400
sg17
g13
sg18
g13
sg19
S'/usr/share/fonts/opentype/stix/STIXGeneral-Italic.otf'
p609
sg21
g22
sbag7
(g8
g9
NtRp610
(dp611
g12
g13
sg14
S'Linux Libertine O'
p612
sg16
I400
sg17
g13
sg18
g13
sg19
S'/usr/share/fonts/opentype/linux-libertine/LinLibertine_R.otf'
p613
sg21
g22
sbag7
(g8
g9
NtRp614
(dp615
g12
g13
sg14
S'DejaVu Sans Mono'
p616
sg16
I700
sg17
g13
sg18
g13
sg19
S'/usr/share/fonts/truetype/dejavu/DejaVuSansMono-Bold.ttf'
p617
sg21
g22
sbag7
(g8
g9
NtRp618
(dp619
g12
g146
sg14
S'DejaVu Sans'
p620
sg16
I400
sg17
g188
sg18
g13
sg19
S'/usr/share/fonts/truetype/dejavu/DejaVuSansCondensed-Oblique.ttf'
p621
sg21
g22
sbag7
(g8
g9
NtRp622
(dp623
g12
g13
sg14
S'NanumBarunGothic'
p624
sg16
I700
sg17
g13
sg18
g13
sg19
S'/usr/share/fonts/truetype/nanum/NanumBarunGothicBold.ttf'
p625
sg21
g22
sbag7
(g8
g9
NtRp626
(dp627
g12
g146
sg14
S'DejaVu Sans'
p628
sg16
I700
sg17
g188
sg18
g13
sg19
S'/usr/share/fonts/truetype/ttf-dejavu/DejaVuSansCondensed-BoldOblique.ttf'
p629
sg21
g22
sbag7
(g8
g9
NtRp630
(dp631
g12
g13
sg14
S'MathJax_Size4'
p632
sg16
I400
sg17
g13
sg18
g13
sg19
S'/usr/share/fonts/opentype/mathjax/MathJax_Size4-Regular.otf'
p633
sg21
g22
sbag7
(g8
g9
NtRp634
(dp635
g12
g13
sg14
S'TlwgMono'
p636
sg16
I700
sg17
g13
sg18
g13
sg19
S'/usr/share/fonts/truetype/tlwg/TlwgMono-Bold.ttf'
p637
sg21
g22
sbag7
(g8
g9
NtRp638
(dp639
g12
g29
sg14
S'Liberation Mono'
p640
sg16
I400
sg17
g13
sg18
g13
sg19
S'/usr/share/fonts/truetype/liberation/LiberationMono-Italic.ttf'
p641
sg21
g22
sbag7
(g8
g9
NtRp642
(dp643
g12
g29
sg14
S'Liberation Serif'
p644
sg16
I700
sg17
g13
sg18
g13
sg19
S'/usr/share/fonts/truetype/liberation/LiberationSerif-BoldItalic.ttf'
p645
sg21
g22
sbag7
(g8
g9
NtRp646
(dp647
g12
g29
sg14
S'Liberation Sans Narrow'
p648
sg16
I400
sg17
g188
sg18
g13
sg19
S'/usr/share/fonts/truetype/ttf-liberation/LiberationSansNarrow-Italic.ttf'
p649
sg21
g22
sbag7
(g8
g9
NtRp650
(dp651
g12
g13
sg14
S'Latin Modern Roman Slanted'
p652
sg16
I400
sg17
g13
sg18
g13
sg19
S'/usr/share/texmf/fonts/opentype/public/lm/lmromanslant8-regular.otf'
p653
sg21
g22
sbag7
(g8
g9
NtRp654
(dp655
g12
g29
sg14
S'STIXGeneral'
p656
sg16
I700
sg17
g13
sg18
g13
sg19
S'/usr/share/fonts/opentype/stix/STIXGeneral-BoldItalic.otf'
p657
sg21
g22
sbag7
(g8
g9
NtRp658
(dp659
g12
g146
sg14
S'Latin Modern Mono Light'
p660
sg16
I700
sg17
g13
sg18
g13
sg19
S'/usr/share/texmf/fonts/opentype/public/lm/lmmonolt10-boldoblique.otf'
p661
sg21
g22
sbag7
(g8
g9
NtRp662
(dp663
g12
g13
sg14
S'ori1Uni'
p664
sg16
I500
sg17
g13
sg18
g13
sg19
S'/usr/share/fonts/truetype/ttf-indic-fonts-core/utkal.ttf'
p665
sg21
g22
sbag7
(g8
g9
NtRp666
(dp667
g12
g13
sg14
S'Linux Biolinum O'
p668
sg16
I700
sg17
g13
sg18
g13
sg19
S'/usr/share/fonts/opentype/linux-libertine/LinBiolinum_RB.otf'
p669
sg21
g22
sbag7
(g8
g9
NtRp670
(dp671
g12
g13
sg14
S'Mukti Narrow'
p672
sg16
I400
sg17
g13
sg18
g13
sg19
S'/usr/share/fonts/truetype/ttf-indic-fonts-core/MuktiNarrow.ttf'
p673
sg21
g22
sbag7
(g8
g9
NtRp674
(dp675
g12
g13
sg14
S'Latin Modern Roman'
p676
sg16
I700
sg17
g13
sg18
g13
sg19
S'/usr/share/texmf/fonts/opentype/public/lm/lmroman6-bold.otf'
p677
sg21
g22
sbag7
(g8
g9
NtRp678
(dp679
g12
g13
sg14
S'Latin Modern Mono Prop'
p680
sg16
I400
sg17
g13
sg18
g13
sg19
S'/usr/share/texmf/fonts/opentype/public/lm/lmmonoprop10-regular.otf'
p681
sg21
g22
sbag7
(g8
g9
NtRp682
(dp683
g12
g13
sg14
S'Norasi'
p684
sg16
I700
sg17
g13
sg18
g13
sg19
S'/usr/share/fonts/truetype/tlwg/Norasi-Bold.ttf'
p685
sg21
g22
sbag7
(g8
g9
NtRp686
(dp687
g12
g29
sg14
S'Courier New'
p688
sg16
I700
sg17
g13
sg18
g13
sg19
S'/usr/share/fonts/truetype/msttcorefonts/courbi.ttf'
p689
sg21
g22
sbag7
(g8
g9
NtRp690
(dp691
g12
g146
sg14
S'Kinnari'
p692
sg16
I700
sg17
g13
sg18
g13
sg19
S'/usr/share/fonts/truetype/tlwg/Kinnari-BoldOblique.ttf'
p693
sg21
g22
sbag7
(g8
g9
NtRp694
(dp695
g12
g13
sg14
S'Mallige'
p696
sg16
I400
sg17
g13
sg18
g13
sg19
S'/usr/share/fonts/truetype/ttf-indic-fonts-core/Malige-n.ttf'
p697
sg21
g22
sbag7
(g8
g9
NtRp698
(dp699
g12
g13
sg14
S'Georgia'
p700
sg16
I400
sg17
g13
sg18
g13
sg19
S'/usr/share/fonts/truetype/msttcorefonts/georgia.ttf'
p701
sg21
g22
sbag7
(g8
g9
NtRp702
(dp703
g12
g13
sg14
S'Latin Modern Roman'
p704
sg16
I400
sg17
g13
sg18
g13
sg19
S'/usr/share/texmf/fonts/opentype/public/lm/lmroman10-regular.otf'
p705
sg21
g22
sbag7
(g8
g9
NtRp706
(dp707
g12
g13
sg14
S'KacstOne'
p708
sg16
I400
sg17
g13
sg18
g13
sg19
S'/usr/share/fonts/truetype/kacst-one/KacstOne.ttf'
p709
sg21
g22
sbag7
(g8
g9
NtRp710
(dp711
g12
g146
sg14
S'Latin Modern Sans'
p712
sg16
I700
sg17
g13
sg18
g13
sg19
S'/usr/share/texmf/fonts/opentype/public/lm/lmsans10-boldoblique.otf'
p713
sg21
g22
sbag7
(g8
g9
NtRp714
(dp715
g12
g13
sg14
S'Lohit Bengali'
p716
sg16
I400
sg17
g13
sg18
g13
sg19
S'/usr/share/fonts/truetype/ttf-indic-fonts-core/lohit_bn.ttf'
p717
sg21
g22
sbag7
(g8
g9
NtRp718
(dp719
g12
g13
sg14
S'Latin Modern Roman Slanted'
p720
sg16
I400
sg17
g13
sg18
g13
sg19
S'/usr/share/texmf/fonts/opentype/public/lm/lmromanslant9-regular.otf'
p721
sg21
g22
sbag7
(g8
g9
NtRp722
(dp723
g12
g13
sg14
S'Latin Modern Mono Slanted'
p724
sg16
I400
sg17
g13
sg18
g13
sg19
S'/usr/share/texmf/fonts/opentype/public/lm/lmmonoslant10-regular.otf'
p725
sg21
g22
sbag7
(g8
g9
NtRp726
(dp727
g12
g146
sg14
S'Latin Modern Sans Quotation'
p728
sg16
I700
sg17
g13
sg18
g13
sg19
S'/usr/share/texmf/fonts/opentype/public/lm/lmsansquot8-boldoblique.otf'
p729
sg21
g22
sbag7
(g8
g9
NtRp730
(dp731
g12
g13
sg14
S'Saab'
p732
sg16
I400
sg17
g13
sg18
g13
sg19
S'/usr/share/fonts/truetype/ttf-punjabi-fonts/Saab.ttf'
p733
sg21
g22
sbag7
(g8
g9
NtRp734
(dp735
g12
g13
sg14
S'KacstBook'
p736
sg16
I400
sg17
g13
sg18
g13
sg19
S'/usr/share/fonts/truetype/kacst/KacstBook.ttf'
p737
sg21
g22
sbag7
(g8
g9
NtRp738
(dp739
g12
g29
sg14
S'Droid Serif'
p740
sg16
I700
sg17
g13
sg18
g13
sg19
S'/usr/share/fonts/truetype/droid/DroidSerif-BoldItalic.ttf'
p741
sg21
g22
sbag7
(g8
g9
NtRp742
(dp743
g12
g29
sg14
S'Georgia'
p744
sg16
I400
sg17
g13
sg18
g13
sg19
S'/usr/share/fonts/truetype/msttcorefonts/georgiai.ttf'
p745
sg21
g22
sbag7
(g8
g9
NtRp746
(dp747
g12
g13
sg14
S'wasy10'
p748
sg16
I400
sg17
g13
sg18
g13
sg19
S'/usr/share/fonts/truetype/lyx/wasy10.ttf'
p749
sg21
g22
sbag7
(g8
g9
NtRp750
(dp751
g12
g13
sg14
S'Pothana2000'
p752
sg16
I400
sg17
g13
sg18
g13
sg19
S'/usr/share/fonts/truetype/ttf-indic-fonts-core/Pothana2000.ttf'
p753
sg21
g22
sbag7
(g8
g9
NtRp754
(dp755
g12
g13
sg14
S'DejaVu Sans'
p756
sg16
I400
sg17
g188
sg18
g13
sg19
S'/usr/share/fonts/truetype/dejavu/DejaVuSansCondensed.ttf'
p757
sg21
g22
sbag7
(g8
g9
NtRp758
(dp759
g12
g29
sg14
S'STIXNonUnicode'
p760
sg16
I400
sg17
g13
sg18
g13
sg19
S'/usr/share/fonts/opentype/stix/STIXNonUnicode-Italic.otf'
p761
sg21
g22
sbag7
(g8
g9
NtRp762
(dp763
g12
g13
sg14
S'UnGungseo'
p764
sg16
I400
sg17
g13
sg18
g13
sg19
S'/usr/share/fonts/truetype/unfonts-core/UnGungseo.ttf'
p765
sg21
g22
sbag7
(g8
g9
NtRp766
(dp767
g12
g29
sg14
S'GentiumAlt'
p768
sg16
I400
sg17
g13
sg18
g13
sg19
S'/usr/share/fonts/truetype/gentium/GenAI102.ttf'
p769
sg21
g22
sbag7
(g8
g9
NtRp770
(dp771
g12
g13
sg14
S'Latin Modern Roman'
p772
sg16
I400
sg17
g13
sg18
g13
sg19
S'/usr/share/texmf/fonts/opentype/public/lm/lmroman8-regular.otf'
p773
sg21
g22
sbag7
(g8
g9
NtRp774
(dp775
g12
g29
sg14
S'Verdana'
p776
sg16
I700
sg17
g13
sg18
g13
sg19
S'/usr/share/fonts/truetype/msttcorefonts/Verdana_Bold_Italic.ttf'
p777
sg21
g22
sbag7
(g8
g9
NtRp778
(dp779
g12
g13
sg14
S'Ubuntu'
p780
sg16
I700
sg17
g13
sg18
g13
sg19
S'/usr/share/fonts/truetype/ubuntu-font-family/Ubuntu-B.ttf'
p781
sg21
g22
sbag7
(g8
g9
NtRp782
(dp783
g12
g146
sg14
S'FreeSans'
p784
sg16
I700
sg17
g13
sg18
g13
sg19
S'/usr/share/fonts/truetype/freefont/FreeSansBoldOblique.ttf'
p785
sg21
g22
sbag7
(g8
g9
NtRp786
(dp787
g12
g146
sg14
S'Latin Modern Sans'
p788
sg16
I400
sg17
g13
sg18
g13
sg19
S'/usr/share/texmf/fonts/opentype/public/lm/lmsans12-oblique.otf'
p789
sg21
g22
sbag7
(g8
g9
NtRp790
(dp791
g12
g13
sg14
S'STIXNonUnicode'
p792
sg16
I400
sg17
g13
sg18
g13
sg19
S'/usr/share/fonts/opentype/stix/STIXNonUnicode-Regular.otf'
p793
sg21
g22
sbag7
(g8
g9
NtRp794
(dp795
g12
g13
sg14
S'Latin Modern Sans Demi Cond'
p796
sg16
I600
sg17
g188
sg18
g13
sg19
S'/usr/share/texmf/fonts/opentype/public/lm/lmsansdemicond10-regular.otf'
p797
sg21
g22
sbag7
(g8
g9
NtRp798
(dp799
g12
g13
sg14
S'Padauk Book'
p800
sg16
I700
sg17
g13
sg18
g13
sg19
S'/usr/share/fonts/truetype/padauk/Padauk-bookbold.ttf'
p801
sg21
g22
sbag7
(g8
g9
NtRp802
(dp803
g12
g13
sg14
S'FreeSans'
p804
sg16
I400
sg17
g13
sg18
g13
sg19
S'/usr/share/fonts/truetype/freefont/FreeSans.ttf'
p805
sg21
g22
sbag7
(g8
g9
NtRp806
(dp807
g12
g13
sg14
S'NanumMyeongjo'
p808
sg16
I700
sg17
g13
sg18
g13
sg19
S'/usr/share/fonts/truetype/nanum/NanumMyeongjoBold.ttf'
p809
sg21
g22
sbag7
(g8
g9
NtRp810
(dp811
g12
g13
sg14
S'DejaVu Serif'
p812
sg16
I700
sg17
g13
sg18
g13
sg19
S'/usr/share/fonts/truetype/dejavu/DejaVuSerif-Bold.ttf'
p813
sg21
g22
sbag7
(g8
g9
NtRp814
(dp815
g12
g146
sg14
S'Kinnari'
p816
sg16
I400
sg17
g13
sg18
g13
sg19
S'/usr/share/fonts/truetype/tlwg/Kinnari-Oblique.ttf'
p817
sg21
g22
sbag7
(g8
g9
NtRp818
(dp819
g12
g13
sg14
S'Umpush'
p820
sg16
I200
sg17
g13
sg18
g13
sg19
S'/usr/share/fonts/truetype/tlwg/Umpush-Light.ttf'
p821
sg21
g22
sbag7
(g8
g9
NtRp822
(dp823
g12
g13
sg14
S'Droid Sans Ethiopic'
p824
sg16
I400
sg17
g13
sg18
g13
sg19
S'/usr/share/fonts/truetype/droid/DroidSansEthiopic-Regular.ttf'
p825
sg21
g22
sbag7
(g8
g9
NtRp826
(dp827
g12
g13
sg14
S'UnBatang'
p828
sg16
I700
sg17
g13
sg18
g13
sg19
S'/usr/share/fonts/truetype/unfonts-core/UnBatangBold.ttf'
p829
sg21
g22
sbag7
(g8
g9
NtRp830
(dp831
g12
g146
sg14
S'Purisa'
p832
sg16
I700
sg17
g13
sg18
g13
sg19
S'/usr/share/fonts/truetype/tlwg/Purisa-BoldOblique.ttf'
p833
sg21
g22
sbag7
(g8
g9
NtRp834
(dp835
g12
g29
sg14
S'Georgia'
p836
sg16
I700
sg17
g13
sg18
g13
sg19
S'/usr/share/fonts/truetype/msttcorefonts/georgiaz.ttf'
p837
sg21
g22
sbag7
(g8
g9
NtRp838
(dp839
g12
g13
sg14
S'Linux Biolinum Keyboard O'
p840
sg16
I400
sg17
g13
sg18
g13
sg19
S'/usr/share/fonts/opentype/linux-libertine/LinBiolinum_K.otf'
p841
sg21
g22
sbag7
(g8
g9
NtRp842
(dp843
g12
g13
sg14
S'IPAMincho'
p844
sg16
I400
sg17
g13
sg18
g13
sg19
S'/usr/share/fonts/opentype/ipafont-mincho/ipam.ttf'
p845
sg21
g22
sbag7
(g8
g9
NtRp846
(dp847
g12
g146
sg14
S'FreeMono'
p848
sg16
I400
sg17
g13
sg18
g13
sg19
S'/usr/share/fonts/truetype/freefont/FreeMonoOblique.ttf'
p849
sg21
g22
sbag7
(g8
g9
NtRp850
(dp851
g12
g13
sg14
S'MathJax_Size1'
p852
sg16
I400
sg17
g13
sg18
g13
sg19
S'/usr/share/fonts/opentype/mathjax/MathJax_Size1-Regular.otf'
p853
sg21
g22
sbag7
(g8
g9
NtRp854
(dp855
g12
g29
sg14
S'STIXNonUnicode'
p856
sg16
I700
sg17
g13
sg18
g13
sg19
S'/usr/share/fonts/opentype/stix/STIXNonUnicode-BoldItalic.otf'
p857
sg21
g22
sbag7
(g8
g9
NtRp858
(dp859
g12
g13
sg14
S'STIXSizeTwoSym'
p860
sg16
I400
sg17
g13
sg18
g13
sg19
S'/usr/share/fonts/opentype/stix/STIXSizeTwoSym-Regular.otf'
p861
sg21
g22
sbag7
(g8
g9
NtRp862
(dp863
g12
g13
sg14
S'Webdings'
p864
sg16
I400
sg17
g13
sg18
g13
sg19
S'/usr/share/fonts/truetype/msttcorefonts/webdings.ttf'
p865
sg21
g22
sbag7
(g8
g9
NtRp866
(dp867
g12
g13
sg14
S'Liberation Sans Narrow'
p868
sg16
I400
sg17
g188
sg18
g13
sg19
S'/usr/share/fonts/truetype/liberation/LiberationSansNarrow-Regular.ttf'
p869
sg21
g22
sbag7
(g8
g9
NtRp870
(dp871
g12
g29
sg14
S'Trebuchet MS'
p872
sg16
I400
sg17
g13
sg18
g13
sg19
S'/usr/share/fonts/truetype/msttcorefonts/trebucit.ttf'
p873
sg21
g22
sbag7
(g8
g9
NtRp874
(dp875
g12
g13
sg14
S'STIXVariants'
p876
sg16
I700
sg17
g13
sg18
g13
sg19
S'/usr/share/fonts/opentype/stix/STIXVariants-Bold.otf'
p877
sg21
g22
sbag7
(g8
g9
NtRp878
(dp879
g12
g146
sg14
S'Latin Modern Sans Quotation'
p880
sg16
I700
sg17
g13
sg18
g13
sg19
S'/usr/share/texmf/fonts/opentype/public/lm/lmsansquot8-oblique.otf'
p881
sg21
g22
sbag7
(g8
g9
NtRp882
(dp883
g12
g13
sg14
S'Comic Sans MS'
p884
sg16
I400
sg17
g13
sg18
g13
sg19
S'/usr/share/fonts/truetype/msttcorefonts/Comic_Sans_MS.ttf'
p885
sg21
g22
sbag7
(g8
g9
NtRp886
(dp887
g12
g13
sg14
S'STIXIntegralsD'
p888
sg16
I400
sg17
g13
sg18
g13
sg19
S'/usr/share/fonts/opentype/stix/STIXIntegralsD-Regular.otf'
p889
sg21
g22
sbag7
(g8
g9
NtRp890
(dp891
g12
g146
sg14
S'Sawasdee'
p892
sg16
I400
sg17
g13
sg18
g13
sg19
S'/usr/share/fonts/truetype/tlwg/Sawasdee-Oblique.ttf'
p893
sg21
g22
sbag7
(g8
g9
NtRp894
(dp895
g12
g29
sg14
S'Latin Modern Roman'
p896
sg16
I700
sg17
g13
sg18
g13
sg19
S'/usr/share/texmf/fonts/opentype/public/lm/lmroman10-bolditalic.otf'
p897
sg21
g22
sbag7
(g8
g9
NtRp898
(dp899
g12
g13
sg14
S'STIXIntegralsD'
p900
sg16
I700
sg17
g13
sg18
g13
sg19
S'/usr/share/fonts/opentype/stix/STIXIntegralsD-Bold.otf'
p901
sg21
g22
sbag7
(g8
g9
NtRp902
(dp903
g12
g13
sg14
S'Khmer OS'
p904
sg16
I400
sg17
g13
sg18
g13
sg19
S'/usr/share/fonts/truetype/ttf-khmeros-core/KhmerOS.ttf'
p905
sg21
g22
sbag7
(g8
g9
NtRp906
(dp907
g12
g13
sg14
S'Padauk'
p908
sg16
I400
sg17
g13
sg18
g13
sg19
S'/usr/share/fonts/truetype/padauk/Padauk.ttf'
p909
sg21
g22
sbag7
(g8
g9
NtRp910
(dp911
g12
g13
sg14
S'KacstDecorative'
p912
sg16
I400
sg17
g13
sg18
g13
sg19
S'/usr/share/fonts/truetype/kacst/KacstDecorative.ttf'
p913
sg21
g22
sbag7
(g8
g9
NtRp914
(dp915
g12
g13
sg14
S'Latin Modern Mono Prop Light'
p916
sg16
I400
sg17
g13
sg18
g13
sg19
S'/usr/share/texmf/fonts/opentype/public/lm/lmmonoproplt10-regular.otf'
p917
sg21
g22
sbag7
(g8
g9
NtRp918
(dp919
g12
g13
sg14
S'Waree'
p920
sg16
I400
sg17
g13
sg18
g13
sg19
S'/usr/share/fonts/truetype/tlwg/Waree.ttf'
p921
sg21
g22
sbag7
(g8
g9
NtRp922
(dp923
g12
g13
sg14
S'FreeMono'
p924
sg16
I400
sg17
g13
sg18
g13
sg19
S'/usr/share/fonts/truetype/freefont/FreeMono.ttf'
p925
sg21
g22
sbag7
(g8
g9
NtRp926
(dp927
g12
g13
sg14
S'Latin Modern Mono'
p928
sg16
I400
sg17
g13
sg18
g13
sg19
S'/usr/share/texmf/fonts/opentype/public/lm/lmmono9-regular.otf'
p929
sg21
g22
sbag7
(g8
g9
NtRp930
(dp931
g12
g13
sg14
S'STIXIntegralsUpSm'
p932
sg16
I700
sg17
g13
sg18
g13
sg19
S'/usr/share/fonts/opentype/stix/STIXIntegralsUpSm-Bold.otf'
p933
sg21
g22
sbag7
(g8
g9
NtRp934
(dp935
g12
g13
sg14
S'Latin Modern Roman'
p936
sg16
I700
sg17
g13
sg18
g13
sg19
S'/usr/share/texmf/fonts/opentype/public/lm/lmroman10-bold.otf'
p937
sg21
g22
sbag7
(g8
g9
NtRp938
(dp939
g12
g13
sg14
S'Linux Libertine Initials O'
p940
sg16
I400
sg17
g13
sg18
g13
sg19
S'/usr/share/fonts/opentype/linux-libertine/LinLibertine_I.otf'
p941
sg21
g22
sbag7
(g8
g9
NtRp942
(dp943
g12
g13
sg14
S'UnPilgi'
p944
sg16
I700
sg17
g13
sg18
g13
sg19
S'/usr/share/fonts/truetype/unfonts-core/UnPilgiBold.ttf'
p945
sg21
g22
sbag7
(g8
g9
NtRp946
(dp947
g12
g13
sg14
S'Liberation Sans'
p948
sg16
I400
sg17
g13
sg18
g13
sg19
S'/usr/share/fonts/truetype/ttf-liberation/LiberationSans-Regular.ttf'
p949
sg21
g22
sbag7
(g8
g9
NtRp950
(dp951
g12
g13
sg14
S'Latin Modern Roman'
p952
sg16
I400
sg17
g13
sg18
g13
sg19
S'/usr/share/texmf/fonts/opentype/public/lm/lmroman7-regular.otf'
p953
sg21
g22
sbag7
(g8
g9
NtRp954
(dp955
g12
g13
sg14
S'Umpush'
p956
sg16
I400
sg17
g13
sg18
g13
sg19
S'/usr/share/fonts/truetype/tlwg/Umpush.ttf'
p957
sg21
g22
sbag7
(g8
g9
NtRp958
(dp959
g12
g13
sg14
S'Times New Roman'
p960
sg16
I500
sg17
g13
sg18
g13
sg19
S'/usr/share/fonts/truetype/msttcorefonts/Times_New_Roman.ttf'
p961
sg21
g22
sbag7
(g8
g9
NtRp962
(dp963
g12
g13
sg14
S'Latin Modern Sans'
p964
sg16
I700
sg17
g13
sg18
g13
sg19
S'/usr/share/texmf/fonts/opentype/public/lm/lmsans10-bold.otf'
p965
sg21
g22
sbag7
(g8
g9
NtRp966
(dp967
g12
g13
sg14
S'DejaVu Sans Mono'
p968
sg16
I400
sg17
g13
sg18
g13
sg19
S'/usr/share/fonts/truetype/ttf-dejavu/DejaVuSansMono.ttf'
p969
sg21
g22
sbag7
(g8
g9
NtRp970
(dp971
g12
g13
sg14
S'Lohit Punjabi'
p972
sg16
I400
sg17
g13
sg18
g13
sg19
S'/usr/share/fonts/truetype/ttf-punjabi-fonts/lohit_pa.ttf'
p973
sg21
g22
sbag7
(g8
g9
NtRp974
(dp975
g12
g13
sg14
S'Liberation Mono'
p976
sg16
I700
sg17
g13
sg18
g13
sg19
S'/usr/share/fonts/truetype/liberation/LiberationMono-Bold.ttf'
p977
sg21
g22
sbag7
(g8
g9
NtRp978
(dp979
g12
g13
sg14
S'Georgia'
p980
sg16
I700
sg17
g13
sg18
g13
sg19
S'/usr/share/fonts/truetype/msttcorefonts/Georgia_Bold.ttf'
p981
sg21
g22
sbag7
(g8
g9
NtRp982
(dp983
g12
g13
sg14
S'DejaVu Sans'
p984
sg16
I700
sg17
g13
sg18
g13
sg19
S'/usr/share/fonts/truetype/dejavu/DejaVuSans-Bold.ttf'
p985
sg21
g22
sbag7
(g8
g9
NtRp986
(dp987
g12
g29
sg14
S'DejaVu Serif'
p988
sg16
I700
sg17
g13
sg18
g13
sg19
S'/usr/share/fonts/truetype/dejavu/DejaVuSerif-BoldItalic.ttf'
p989
sg21
g22
sbag7
(g8
g9
NtRp990
(dp991
g12
g13
sg14
S'LKLUG'
p992
sg16
I400
sg17
g13
sg18
g13
sg19
S'/usr/share/fonts/truetype/sinhala/lklug.ttf'
p993
sg21
g22
sbag7
(g8
g9
NtRp994
(dp995
g12
g13
sg14
S'Lohit Devanagari'
p996
sg16
I400
sg17
g13
sg18
g13
sg19
S'/usr/share/fonts/truetype/ttf-indic-fonts-core/lohit_hi.ttf'
p997
sg21
g22
sbag7
(g8
g9
NtRp998
(dp999
g12
g13
sg14
S'Courier New'
p1000
sg16
I700
sg17
g13
sg18
g13
sg19
S'/usr/share/fonts/truetype/msttcorefonts/Courier_New_Bold.ttf'
p1001
sg21
g22
sbag7
(g8
g9
NtRp1002
(dp1003
g12
g13
sg14
S'FontAwesome'
p1004
sg16
I400
sg17
g13
sg18
g13
sg19
S'/usr/share/fonts/opentype/font-awesome/FontAwesome.otf'
p1005
sg21
g22
sbag7
(g8
g9
NtRp1006
(dp1007
g12
g13
sg14
S'Ubuntu'
p1008
sg16
I400
sg17
g13
sg18
g13
sg19
S'/usr/share/fonts/truetype/ubuntu-font-family/Ubuntu-R.ttf'
p1009
sg21
g22
sbag7
(g8
g9
NtRp1010
(dp1011
g12
g146
sg14
S'TlwgMono'
p1012
sg16
I400
sg17
g13
sg18
g13
sg19
S'/usr/share/fonts/truetype/tlwg/TlwgMono-Oblique.ttf'
p1013
sg21
g22
sbag7
(g8
g9
NtRp1014
(dp1015
g12
g13
sg14
S'MathJax_Main'
p1016
sg16
I400
sg17
g13
sg18
g13
sg19
S'/usr/share/fonts/opentype/mathjax/MathJax_Main-Regular.otf'
p1017
sg21
g22
sbag7
(g8
g9
NtRp1018
(dp1019
g12
g13
sg14
S'Georgia'
p1020
sg16
I400
sg17
g13
sg18
g13
sg19
S'/usr/share/fonts/truetype/msttcorefonts/Georgia.ttf'
p1021
sg21
g22
sbag7
(g8
g9
NtRp1022
(dp1023
g12
g13
sg14
S'msbm10'
p1024
sg16
I400
sg17
g13
sg18
g13
sg19
S'/usr/share/fonts/truetype/lyx/msbm10.ttf'
p1025
sg21
g22
sbag7
(g8
g9
NtRp1026
(dp1027
g12
g29
sg14
S'DejaVu Serif'
p1028
sg16
I400
sg17
g188
sg18
g13
sg19
S'/usr/share/fonts/truetype/dejavu/DejaVuSerifCondensed-Italic.ttf'
p1029
sg21
g22
sbag7
(g8
g9
NtRp1030
(dp1031
g12
g13
sg14
S'Verdana'
p1032
sg16
I400
sg17
g13
sg18
g13
sg19
S'/usr/share/fonts/truetype/msttcorefonts/Verdana.ttf'
p1033
sg21
g22
sbag7
(g8
g9
NtRp1034
(dp1035
g12
g146
sg14
S'Tlwg Typist'
p1036
sg16
I700
sg17
g13
sg18
g13
sg19
S'/usr/share/fonts/truetype/tlwg/TlwgTypist-BoldOblique.ttf'
p1037
sg21
g22
sbag7
(g8
g9
NtRp1038
(dp1039
g12
g13
sg14
S'Phetsarath OT'
p1040
sg16
I400
sg17
g13
sg18
g13
sg19
S'/usr/share/fonts/truetype/lao/Phetsarath_OT.ttf'
p1041
sg21
g22
sbag7
(g8
g9
NtRp1042
(dp1043
g12
g13
sg14
S'Courier New'
p1044
sg16
I400
sg17
g13
sg18
g13
sg19
S'/usr/share/fonts/truetype/msttcorefonts/cour.ttf'
p1045
sg21
g22
sbag7
(g8
g9
NtRp1046
(dp1047
g12
g13
sg14
S'TakaoPGothic'
p1048
sg16
I400
sg17
g13
sg18
g13
sg19
S'/usr/share/fonts/truetype/takao-gothic/TakaoPGothic.ttf'
p1049
sg21
g22
sbag7
(g8
g9
NtRp1050
(dp1051
g12
g13
sg14
S'Droid Sans'
p1052
sg16
I400
sg17
g13
sg18
g13
sg19
S'/usr/share/fonts/truetype/droid/DroidSans.ttf'
p1053
sg21
g22
sbag7
(g8
g9
NtRp1054
(dp1055
g12
g13
sg14
S'STIXSizeFiveSym'
p1056
sg16
I400
sg17
g13
sg18
g13
sg19
S'/usr/share/fonts/opentype/stix/STIXSizeFiveSym-Regular.otf'
p1057
sg21
g22
sbag7
(g8
g9
NtRp1058
(dp1059
g12
g13
sg14
S'Kedage'
p1060
sg16
I700
sg17
g13
sg18
g13
sg19
S'/usr/share/fonts/truetype/ttf-indic-fonts-core/Kedage-b.ttf'
p1061
sg21
g22
sbag7
(g8
g9
NtRp1062
(dp1063
g12
g13
sg14
S'Courier New'
p1064
sg16
I400
sg17
g13
sg18
g13
sg19
S'/usr/share/fonts/truetype/msttcorefonts/Courier_New.ttf'
p1065
sg21
g22
sbag7
(g8
g9
NtRp1066
(dp1067
g12
g13
sg14
S'Latin Modern Mono'
p1068
sg16
I400
sg17
g13
sg18
g13
sg19
S'/usr/share/texmf/fonts/opentype/public/lm/lmmono12-regular.otf'
p1069
sg21
g22
sbag7
(g8
g9
NtRp1070
(dp1071
g12
g13
sg14
S'MathJax_AMS'
p1072
sg16
I400
sg17
g13
sg18
g13
sg19
S'/usr/share/fonts/opentype/mathjax/MathJax_AMS-Regular.otf'
p1073
sg21
g22
sbag7
(g8
g9
NtRp1074
(dp1075
g12
g29
sg14
S'Norasi'
p1076
sg16
I700
sg17
g13
sg18
g13
sg19
S'/usr/share/fonts/truetype/tlwg/Norasi-BoldItalic.ttf'
p1077
sg21
g22
sbag7
(g8
g9
NtRp1078
(dp1079
g12
g13
sg14
S'Umpush'
p1080
sg16
I700
sg17
g13
sg18
g13
sg19
S'/usr/share/fonts/truetype/tlwg/Umpush-Bold.ttf'
p1081
sg21
g22
sbag7
(g8
g9
NtRp1082
(dp1083
g12
g29
sg14
S'Liberation Sans'
p1084
sg16
I700
sg17
g13
sg18
g13
sg19
S'/usr/share/fonts/truetype/liberation/LiberationSans-BoldItalic.ttf'
p1085
sg21
g22
sbag7
(g8
g9
NtRp1086
(dp1087
g12
g13
sg14
S'Vemana2000'
p1088
sg16
I400
sg17
g13
sg18
g13
sg19
S'/usr/share/fonts/truetype/ttf-indic-fonts-core/Vemana.ttf'
p1089
sg21
g22
sbag7
(g8
g9
NtRp1090
(dp1091
g12
g146
sg14
S'Norasi'
p1092
sg16
I700
sg17
g13
sg18
g13
sg19
S'/usr/share/fonts/truetype/tlwg/Norasi-BoldOblique.ttf'
p1093
sg21
g22
sbag7
(g8
g9
NtRp1094
(dp1095
g12
g13
sg14
S'Latin Modern Mono Light Cond'
p1096
sg16
I400
sg17
g188
sg18
g13
sg19
S'/usr/share/texmf/fonts/opentype/public/lm/lmmonoltcond10-regular.otf'
p1097
sg21
g22
sbag7
(g8
g9
NtRp1098
(dp1099
g12
g13
sg14
S'Latin Modern Roman Demi'
p1100
sg16
I600
sg17
g13
sg18
g13
sg19
S'/usr/share/texmf/fonts/opentype/public/lm/lmromandemi10-regular.otf'
p1101
sg21
g22
sbag7
(g8
g9
NtRp1102
(dp1103
g12
g13
sg14
S'MathJax_Caligraphic'
p1104
sg16
I400
sg17
g13
sg18
g13
sg19
S'/usr/share/fonts/opentype/mathjax/MathJax_Caligraphic-Regular.otf'
p1105
sg21
g22
sbag7
(g8
g9
NtRp1106
(dp1107
g12
g13
sg14
S'Ubuntu'
p1108
sg16
I200
sg17
g13
sg18
g13
sg19
S'/usr/share/fonts/truetype/ubuntu-font-family/Ubuntu-L.ttf'
p1109
sg21
g22
sbag7
(g8
g9
NtRp1110
(dp1111
g12
g13
sg14
S'Latin Modern Roman'
p1112
sg16
I400
sg17
g13
sg18
g13
sg19
S'/usr/share/texmf/fonts/opentype/public/lm/lmroman9-regular.otf'
p1113
sg21
g22
sbag7
(g8
g9
NtRp1114
(dp1115
g12
g146
sg14
S'Latin Modern Sans Demi Cond'
p1116
sg16
I600
sg17
g188
sg18
g13
sg19
S'/usr/share/texmf/fonts/opentype/public/lm/lmsansdemicond10-oblique.otf'
p1117
sg21
g22
sbag7
(g8
g9
NtRp1118
(dp1119
g12
g13
sg14
S'Linux Libertine O'
p1120
sg16
I700
sg17
g13
sg18
g13
sg19
S'/usr/share/fonts/opentype/linux-libertine/LinLibertine_RB.otf'
p1121
sg21
g22
sbag7
(g8
g9
NtRp1122
(dp1123
g12
g13
sg14
S'DejaVu Sans'
p1124
sg16
I200
sg17
g13
sg18
g13
sg19
S'/usr/share/fonts/truetype/dejavu/DejaVuSans-ExtraLight.ttf'
p1125
sg21
g22
sbag7
(g8
g9
NtRp1126
(dp1127
g12
g13
sg14
S'KacstFarsi'
p1128
sg16
I400
sg17
g13
sg18
g13
sg19
S'/usr/share/fonts/truetype/kacst/KacstFarsi.ttf'
p1129
sg21
g22
sbag7
(g8
g9
NtRp1130
(dp1131
g12
g13
sg14
S'STIXSizeFourSym'
p1132
sg16
I700
sg17
g13
sg18
g13
sg19
S'/usr/share/fonts/opentype/stix/STIXSizeFourSym-Bold.otf'
p1133
sg21
g22
sbag7
(g8
g9
NtRp1134
(dp1135
g12
g13
sg14
S'Andale Mono'
p1136
sg16
I400
sg17
g13
sg18
g13
sg19
S'/usr/share/fonts/truetype/msttcorefonts/Andale_Mono.ttf'
p1137
sg21
g22
sbag7
(g8
g9
NtRp1138
(dp1139
g12
g13
sg14
S'Latin Modern Roman Slanted'
p1140
sg16
I400
sg17
g13
sg18
g13
sg19
S'/usr/share/texmf/fonts/opentype/public/lm/lmromanslant17-regular.otf'
p1141
sg21
g22
sbag7
(g8
g9
NtRp1142
(dp1143
g12
g29
sg14
S'Courier New'
p1144
sg16
I400
sg17
g13
sg18
g13
sg19
S'/usr/share/fonts/truetype/msttcorefonts/Courier_New_Italic.ttf'
p1145
sg21
g22
sbag7
(g8
g9
NtRp1146
(dp1147
g12
g146
sg14
S'Latin Modern Mono Light Cond'
p1148
sg16
I200
sg17
g188
sg18
g13
sg19
S'/usr/share/texmf/fonts/opentype/public/lm/lmmonoltcond10-oblique.otf'
p1149
sg21
g22
sbag7
(g8
g9
NtRp1150
(dp1151
g12
g146
sg14
S'Loma'
p1152
sg16
I700
sg17
g13
sg18
g13
sg19
S'/usr/share/fonts/truetype/tlwg/Loma-BoldOblique.ttf'
p1153
sg21
g22
sbag7
(g8
g9
NtRp1154
(dp1155
g12
g13
sg14
S'TlwgTypewriter'
p1156
sg16
I400
sg17
g13
sg18
g13
sg19
S'/usr/share/fonts/truetype/tlwg/TlwgTypewriter.ttf'
p1157
sg21
g22
sbag7
(g8
g9
NtRp1158
(dp1159
g12
g13
sg14
S'MathJax_Fraktur'
p1160
sg16
I400
sg17
g13
sg18
g13
sg19
S'/usr/share/fonts/opentype/mathjax/MathJax_Fraktur-Regular.otf'
p1161
sg21
g22
sbag7
(g8
g9
NtRp1162
(dp1163
g12
g13
sg14
S'Latin Modern Roman'
p1164
sg16
I700
sg17
g13
sg18
g13
sg19
S'/usr/share/texmf/fonts/opentype/public/lm/lmroman7-bold.otf'
p1165
sg21
g22
sbag7
(g8
g9
NtRp1166
(dp1167
g12
g13
sg14
S'gargi'
p1168
sg16
I400
sg17
g13
sg18
g13
sg19
S'/usr/share/fonts/truetype/ttf-indic-fonts-core/gargi.ttf'
p1169
sg21
g22
sbag7
(g8
g9
NtRp1170
(dp1171
g12
g13
sg14
S'Latin Modern Roman'
p1172
sg16
I700
sg17
g13
sg18
g13
sg19
S'/usr/share/texmf/fonts/opentype/public/lm/lmroman9-bold.otf'
p1173
sg21
g22
sbag7
(g8
g9
NtRp1174
(dp1175
g12
g13
sg14
S'IPAPGothic'
p1176
sg16
I400
sg17
g13
sg18
g13
sg19
S'/usr/share/fonts/opentype/ipafont-gothic/ipagp.ttf'
p1177
sg21
g22
sbag7
(g8
g9
NtRp1178
(dp1179
g12
g13
sg14
S'STIXSizeThreeSym'
p1180
sg16
I400
sg17
g13
sg18
g13
sg19
S'/usr/share/fonts/opentype/stix/STIXSizeThreeSym-Regular.otf'
p1181
sg21
g22
sbag7
(g8
g9
NtRp1182
(dp1183
g12
g13
sg14
S'Arial Black'
p1184
sg16
I900
sg17
g13
sg18
g13
sg19
S'/usr/share/fonts/truetype/msttcorefonts/Arial_Black.ttf'
p1185
sg21
g22
sbag7
(g8
g9
NtRp1186
(dp1187
g12
g13
sg14
S'Webdings'
p1188
sg16
I400
sg17
g13
sg18
g13
sg19
S'/usr/share/fonts/truetype/msttcorefonts/Webdings.ttf'
p1189
sg21
g22
sbag7
(g8
g9
NtRp1190
(dp1191
g12
g146
sg14
S'Latin Modern Sans'
p1192
sg16
I400
sg17
g13
sg18
g13
sg19
S'/usr/share/texmf/fonts/opentype/public/lm/lmsans8-oblique.otf'
p1193
sg21
g22
sbag7
(g8
g9
NtRp1194
(dp1195
g12
g13
sg14
S'UnDotum'
p1196
sg16
I700
sg17
g13
sg18
g13
sg19
S'/usr/share/fonts/truetype/unfonts-core/UnDotumBold.ttf'
p1197
sg21
g22
sbag7
(g8
g9
NtRp1198
(dp1199
g12
g146
sg14
S'FreeMono'
p1200
sg16
I700
sg17
g13
sg18
g13
sg19
S'/usr/share/fonts/truetype/freefont/FreeMonoBoldOblique.ttf'
p1201
sg21
g22
sbag7
(g8
g9
NtRp1202
(dp1203
g12
g13
sg14
S'MathJax_Size2'
p1204
sg16
I400
sg17
g13
sg18
g13
sg19
S'/usr/share/fonts/opentype/mathjax/MathJax_Size2-Regular.otf'
p1205
sg21
g22
sbag7
(g8
g9
NtRp1206
(dp1207
g12
g29
sg14
S'Arial'
p1208
sg16
I400
sg17
g13
sg18
g13
sg19
S'/usr/share/fonts/truetype/msttcorefonts/ariali.ttf'
p1209
sg21
g22
sbag7
(g8
g9
NtRp1210
(dp1211
g12
g13
sg14
S'MathJax_Size3'
p1212
sg16
I400
sg17
g13
sg18
g13
sg19
S'/usr/share/fonts/opentype/mathjax/MathJax_Size3-Regular.otf'
p1213
sg21
g22
sbag7
(g8
g9
NtRp1214
(dp1215
g12
g29
sg14
S'Trebuchet MS'
p1216
sg16
I700
sg17
g13
sg18
g13
sg19
S'/usr/share/fonts/truetype/msttcorefonts/trebucbi.ttf'
p1217
sg21
g22
sbag7
(g8
g9
NtRp1218
(dp1219
g12
g13
sg14
S'KacstArt'
p1220
sg16
I400
sg17
g13
sg18
g13
sg19
S'/usr/share/fonts/truetype/kacst/KacstArt.ttf'
p1221
sg21
g22
sbag7
(g8
g9
NtRp1222
(dp1223
g12
g29
sg14
S'Liberation Sans Narrow'
p1224
sg16
I700
sg17
g188
sg18
g13
sg19
S'/usr/share/fonts/truetype/liberation/LiberationSansNarrow-BoldItalic.ttf'
p1225
sg21
g22
sbag7
(g8
g9
NtRp1226
(dp1227
g12
g29
sg14
S'Times New Roman'
p1228
sg16
I500
sg17
g13
sg18
g13
sg19
S'/usr/share/fonts/truetype/msttcorefonts/timesi.ttf'
p1229
sg21
g22
sbag7
(g8
g9
NtRp1230
(dp1231
g12
g29
sg14
S'Times New Roman'
p1232
sg16
I500
sg17
g13
sg18
g13
sg19
S'/usr/share/fonts/truetype/msttcorefonts/Times_New_Roman_Italic.ttf'
p1233
sg21
g22
sbag7
(g8
g9
NtRp1234
(dp1235
g12
g13
sg14
S'STIXIntegralsSm'
p1236
sg16
I700
sg17
g13
sg18
g13
sg19
S'/usr/share/fonts/opentype/stix/STIXIntegralsSm-Bold.otf'
p1237
sg21
g22
sbag7
(g8
g9
NtRp1238
(dp1239
g12
g13
sg14
S'Ubuntu Condensed'
p1240
sg16
I400
sg17
g188
sg18
g13
sg19
S'/usr/share/fonts/truetype/ubuntu-font-family/Ubuntu-C.ttf'
p1241
sg21
g22
sbag7
(g8
g9
NtRp1242
(dp1243
g12
g13
sg14
S'Latin Modern Roman Slanted'
p1244
sg16
I400
sg17
g13
sg18
g13
sg19
S'/usr/share/texmf/fonts/opentype/public/lm/lmromanslant12-regular.otf'
p1245
sg21
g22
sbag7
(g8
g9
NtRp1246
(dp1247
g12
g13
sg14
S'Latin Modern Sans'
p1248
sg16
I400
sg17
g13
sg18
g13
sg19
S'/usr/share/texmf/fonts/opentype/public/lm/lmsans17-regular.otf'
p1249
sg21
g22
sbag7
(g8
g9
NtRp1250
(dp1251
g12
g13
sg14
S'STIXSizeTwoSym'
p1252
sg16
I700
sg17
g13
sg18
g13
sg19
S'/usr/share/fonts/opentype/stix/STIXSizeTwoSym-Bold.otf'
p1253
sg21
g22
sbag7
(g8
g9
NtRp1254
(dp1255
g12
g29
sg14
S'Courier New'
p1256
sg16
I700
sg17
g13
sg18
g13
sg19
S'/usr/share/fonts/truetype/msttcorefonts/Courier_New_Bold_Italic.ttf'
p1257
sg21
g22
sbag7
(g8
g9
NtRp1258
(dp1259
g12
g13
sg14
S'MathJax_Main'
p1260
sg16
I700
sg17
g13
sg18
g13
sg19
S'/usr/share/fonts/opentype/mathjax/MathJax_Main-Bold.otf'
p1261
sg21
g22
sbag7
(g8
g9
NtRp1262
(dp1263
g12
g13
sg14
S'IPAexMincho'
p1264
sg16
I400
sg17
g13
sg18
g13
sg19
S'/usr/share/fonts/opentype/ipaexfont-mincho/ipaexm.ttf'
p1265
sg21
g22
sbag7
(g8
g9
NtRp1266
(dp1267
g12
g13
sg14
S'Rachana'
p1268
sg16
I400
sg17
g13
sg18
g13
sg19
S'/usr/share/fonts/truetype/ttf-indic-fonts-core/Rachana_04.ttf'
p1269
sg21
g22
sbag7
(g8
g9
NtRp1270
(dp1271
g12
g13
sg14
S'Kinnari'
p1272
sg16
I700
sg17
g13
sg18
g13
sg19
S'/usr/share/fonts/truetype/tlwg/Kinnari-Bold.ttf'
p1273
sg21
g22
sbag7
(g8
g9
NtRp1274
(dp1275
g12
g13
sg14
S'IPAexGothic'
p1276
sg16
I400
sg17
g13
sg18
g13
sg19
S'/usr/share/fonts/opentype/ipaexfont-gothic/ipaexg.ttf'
p1277
sg21
g22
sbag7
(g8
g9
NtRp1278
(dp1279
g12
g146
sg14
S'TlwgTypewriter'
p1280
sg16
I700
sg17
g13
sg18
g13
sg19
S'/usr/share/fonts/truetype/tlwg/TlwgTypewriter-BoldOblique.ttf'
p1281
sg21
g22
sbag7
(g8
g9
NtRp1282
(dp1283
g12
g13
sg14
S'MathJax_Script'
p1284
sg16
I400
sg17
g13
sg18
g13
sg19
S'/usr/share/fonts/opentype/mathjax/MathJax_Script-Regular.otf'
p1285
sg21
g22
sbag7
(g8
g9
NtRp1286
(dp1287
g12
g13
sg14
S'FreeSerif'
p1288
sg16
I400
sg17
g13
sg18
g13
sg19
S'/usr/share/fonts/truetype/freefont/FreeSerif.ttf'
p1289
sg21
g22
sbag7
(g8
g9
NtRp1290
(dp1291
g12
g13
sg14
S'Latin Modern Roman Slanted'
p1292
sg16
I400
sg17
g13
sg18
g13
sg19
S'/usr/share/texmf/fonts/opentype/public/lm/lmromanslant10-regular.otf'
p1293
sg21
g22
sbag7
(g8
g9
NtRp1294
(dp1295
g12
g13
sg14
S'Droid Sans Armenian'
p1296
sg16
I400
sg17
g13
sg18
g13
sg19
S'/usr/share/fonts/truetype/droid/DroidSansArmenian.ttf'
p1297
sg21
g22
sbag7
(g8
g9
NtRp1298
(dp1299
g12
g146
sg14
S'Sawasdee'
p1300
sg16
I700
sg17
g13
sg18
g13
sg19
S'/usr/share/fonts/truetype/tlwg/Sawasdee-BoldOblique.ttf'
p1301
sg21
g22
sbag7
(g8
g9
NtRp1302
(dp1303
g12
g13
sg14
S'Sawasdee'
p1304
sg16
I700
sg17
g13
sg18
g13
sg19
S'/usr/share/fonts/truetype/tlwg/Sawasdee-Bold.ttf'
p1305
sg21
g22
sbag7
(g8
g9
NtRp1306
(dp1307
g12
g13
sg14
S'STIXIntegralsSm'
p1308
sg16
I400
sg17
g13
sg18
g13
sg19
S'/usr/share/fonts/opentype/stix/STIXIntegralsSm-Regular.otf'
p1309
sg21
g22
sbag7
(g8
g9
NtRp1310
(dp1311
g12
g13
sg14
S'Droid Sans Thai'
p1312
sg16
I400
sg17
g13
sg18
g13
sg19
S'/usr/share/fonts/truetype/droid/DroidSansThai.ttf'
p1313
sg21
g22
sbag7
(g8
g9
NtRp1314
(dp1315
g12
g146
sg14
S'Garuda'
p1316
sg16
I400
sg17
g13
sg18
g13
sg19
S'/usr/share/fonts/truetype/tlwg/Garuda-Oblique.ttf'
p1317
sg21
g22
sbag7
(g8
g9
NtRp1318
(dp1319
g12
g13
sg14
S'Lohit Gujarati'
p1320
sg16
I400
sg17
g13
sg18
g13
sg19
S'/usr/share/fonts/truetype/ttf-indic-fonts-core/lohit_gu.ttf'
p1321
sg21
g22
sbag7
(g8
g9
NtRp1322
(dp1323
g12
g13
sg14
S'Latin Modern Sans Quotation'
p1324
sg16
I700
sg17
g13
sg18
g13
sg19
S'/usr/share/texmf/fonts/opentype/public/lm/lmsansquot8-bold.otf'
p1325
sg21
g22
sbag7
(g8
g9
NtRp1326
(dp1327
g12
g13
sg14
S'NanumMyeongjo'
p1328
sg16
I400
sg17
g13
sg18
g13
sg19
S'/usr/share/fonts/truetype/nanum/NanumMyeongjo.ttf'
p1329
sg21
g22
sbag7
(g8
g9
NtRp1330
(dp1331
g12
g13
sg14
S'Linux Libertine Mono O'
p1332
sg16
I400
sg17
g13
sg18
g13
sg19
S'/usr/share/fonts/opentype/linux-libertine/LinLibertine_M.otf'
p1333
sg21
g22
sbag7
(g8
g9
NtRp1334
(dp1335
g12
g13
sg14
S'STIXGeneral'
p1336
sg16
I700
sg17
g13
sg18
g13
sg19
S'/usr/share/fonts/opentype/stix/STIXGeneral-Bold.otf'
p1337
sg21
g22
sbag7
(g8
g9
NtRp1338
(dp1339
g12
g13
sg14
S'Loma'
p1340
sg16
I700
sg17
g13
sg18
g13
sg19
S'/usr/share/fonts/truetype/tlwg/Loma-Bold.ttf'
p1341
sg21
g22
sbag7
(g8
g9
NtRp1342
(dp1343
g12
g13
sg14
S'KacstPen'
p1344
sg16
I400
sg17
g13
sg18
g13
sg19
S'/usr/share/fonts/truetype/kacst/KacstPen.ttf'
p1345
sg21
g22
sbag7
(g8
g9
NtRp1346
(dp1347
g12
g13
sg14
S'STIXSizeFourSym'
p1348
sg16
I400
sg17
g13
sg18
g13
sg19
S'/usr/share/fonts/opentype/stix/STIXSizeFourSym-Regular.otf'
p1349
sg21
g22
sbag7
(g8
g9
NtRp1350
(dp1351
g12
g13
sg14
S'Trebuchet MS'
p1352
sg16
I700
sg17
g13
sg18
g13
sg19
S'/usr/share/fonts/truetype/msttcorefonts/trebucbd.ttf'
p1353
sg21
g22
sbag7
(g8
g9
NtRp1354
(dp1355
g12
g29
sg14
S'Linux Libertine O'
p1356
sg16
I700
sg17
g13
sg18
g13
sg19
S'/usr/share/fonts/opentype/linux-libertine/LinLibertine_RBI.otf'
p1357
sg21
g22
sbag7
(g8
g9
NtRp1358
(dp1359
g12
g13
sg14
S'IPAPMincho'
p1360
sg16
I400
sg17
g13
sg18
g13
sg19
S'/usr/share/fonts/opentype/ipafont-mincho/ipamp.ttf'
p1361
sg21
g22
sbag7
(g8
g9
NtRp1362
(dp1363
g12
g13
sg14
S'Georgia'
p1364
sg16
I700
sg17
g13
sg18
g13
sg19
S'/usr/share/fonts/truetype/msttcorefonts/georgiab.ttf'
p1365
sg21
g22
sbag7
(g8
g9
NtRp1366
(dp1367
g12
g29
sg14
S'FreeSerif'
p1368
sg16
I400
sg17
g13
sg18
g13
sg19
S'/usr/share/fonts/truetype/freefont/FreeSerifItalic.ttf'
p1369
sg21
g22
sbag7
(g8
g9
NtRp1370
(dp1371
g12
g13
sg14
S'Latin Modern Roman Slanted'
p1372
sg16
I700
sg17
g13
sg18
g13
sg19
S'/usr/share/texmf/fonts/opentype/public/lm/lmromanslant10-bold.otf'
p1373
sg21
g22
sbag7
(g8
g9
NtRp1374
(dp1375
g12
g146
sg14
S'Latin Modern Roman Caps'
p1376
sg16
I500
sg17
g13
sg18
g13
sg19
S'/usr/share/texmf/fonts/opentype/public/lm/lmromancaps10-oblique.otf'
p1377
sg21
g22
sbag7
(g8
g9
NtRp1378
(dp1379
g12
g13
sg14
S'Droid Sans Japanese'
p1380
sg16
I400
sg17
g13
sg18
g13
sg19
S'/usr/share/fonts/truetype/droid/DroidSansJapanese.ttf'
p1381
sg21
g22
sbag7
(g8
g9
NtRp1382
(dp1383
g12
g13
sg14
S'Mallige'
p1384
sg16
I700
sg17
g13
sg18
g13
sg19
S'/usr/share/fonts/truetype/ttf-indic-fonts-core/Malige-b.ttf'
p1385
sg21
g22
sbag7
(g8
g9
NtRp1386
(dp1387
g12
g13
sg14
S'Latin Modern Roman'
p1388
sg16
I400
sg17
g13
sg18
g13
sg19
S'/usr/share/texmf/fonts/opentype/public/lm/lmroman6-regular.otf'
p1389
sg21
g22
sbag7
(g8
g9
NtRp1390
(dp1391
g12
g29
sg14
S'DejaVu Serif'
p1392
sg16
I700
sg17
g188
sg18
g13
sg19
S'/usr/share/fonts/truetype/dejavu/DejaVuSerifCondensed-BoldItalic.ttf'
p1393
sg21
g22
sbag7
(g8
g9
NtRp1394
(dp1395
g12
g29
sg14
S'Verdana'
p1396
sg16
I400
sg17
g13
sg18
g13
sg19
S'/usr/share/fonts/truetype/msttcorefonts/verdanai.ttf'
p1397
sg21
g22
sbag7
(g8
g9
NtRp1398
(dp1399
g12
g13
sg14
S'STIXIntegralsUpSm'
p1400
sg16
I400
sg17
g13
sg18
g13
sg19
S'/usr/share/fonts/opentype/stix/STIXIntegralsUpSm-Regular.otf'
p1401
sg21
g22
sbag7
(g8
g9
NtRp1402
(dp1403
g12
g13
sg14
S'MathJax_SansSerif'
p1404
sg16
I400
sg17
g13
sg18
g13
sg19
S'/usr/share/fonts/opentype/mathjax/MathJax_SansSerif-Regular.otf'
p1405
sg21
g22
sbag7
(g8
g9
NtRp1406
(dp1407
g12
g13
sg14
S'Latin Modern Sans'
p1408
sg16
I400
sg17
g13
sg18
g13
sg19
S'/usr/share/texmf/fonts/opentype/public/lm/lmsans9-regular.otf'
p1409
sg21
g22
sbag7
(g8
g9
NtRp1410
(dp1411
g12
g146
sg14
S'Latin Modern Mono Light'
p1412
sg16
I200
sg17
g13
sg18
g13
sg19
S'/usr/share/texmf/fonts/opentype/public/lm/lmmonolt10-oblique.otf'
p1413
sg21
g22
sbag7
(g8
g9
NtRp1414
(dp1415
g12
g13
sg14
S'Droid Serif'
p1416
sg16
I700
sg17
g13
sg18
g13
sg19
S'/usr/share/fonts/truetype/droid/DroidSerif-Bold.ttf'
p1417
sg21
g22
sbag7
(g8
g9
NtRp1418
(dp1419
g12
g13
sg14
S'Meera'
p1420
sg16
I400
sg17
g13
sg18
g13
sg19
S'/usr/share/fonts/truetype/ttf-indic-fonts-core/Meera_04.ttf'
p1421
sg21
g22
sbag7
(g8
g9
NtRp1422
(dp1423
g12
g146
sg14
S'Umpush'
p1424
sg16
I200
sg17
g13
sg18
g13
sg19
S'/usr/share/fonts/truetype/tlwg/Umpush-LightOblique.ttf'
p1425
sg21
g22
sbag7
(g8
g9
NtRp1426
(dp1427
g12
g13
sg14
S'Tlwg Typo'
p1428
sg16
I400
sg17
g13
sg18
g13
sg19
S'/usr/share/fonts/truetype/tlwg/TlwgTypo.ttf'
p1429
sg21
g22
sbag7
(g8
g9
NtRp1430
(dp1431
g12
g13
sg14
S'Gentium'
p1432
sg16
I400
sg17
g13
sg18
g13
sg19
S'/usr/share/fonts/truetype/gentium/GenR102.ttf'
p1433
sg21
g22
sbag7
(g8
g9
NtRp1434
(dp1435
g12
g146
sg14
S'FreeSans'
p1436
sg16
I400
sg17
g13
sg18
g13
sg19
S'/usr/share/fonts/truetype/freefont/FreeSansOblique.ttf'
p1437
sg21
g22
sbag7
(g8
g9
NtRp1438
(dp1439
g12
g146
sg14
S'Latin Modern Roman Dunhill'
p1440
sg16
I500
sg17
g13
sg18
g13
sg19
S'/usr/share/texmf/fonts/opentype/public/lm/lmromandunh10-oblique.otf'
p1441
sg21
g22
sbag7
(g8
g9
NtRp1442
(dp1443
g12
g13
sg14
S'Liberation Sans'
p1444
sg16
I700
sg17
g13
sg18
g13
sg19
S'/usr/share/fonts/truetype/liberation/LiberationSans-Bold.ttf'
p1445
sg21
g22
sbag7
(g8
g9
NtRp1446
(dp1447
g12
g29
sg14
S'rsfs10'
p1448
sg16
I400
sg17
g13
sg18
g13
sg19
S'/usr/share/fonts/truetype/lyx/rsfs10.ttf'
p1449
sg21
g22
sbag7
(g8
g9
NtRp1450
(dp1451
g12
g13
sg14
S'Liberation Mono'
p1452
sg16
I400
sg17
g13
sg18
g13
sg19
S'/usr/share/fonts/truetype/liberation/LiberationMono-Regular.ttf'
p1453
sg21
g22
sbag7
(g8
g9
NtRp1454
(dp1455
g12
g13
sg14
S'MathJax_Typewriter'
p1456
sg16
I400
sg17
g13
sg18
g13
sg19
S'/usr/share/fonts/opentype/mathjax/MathJax_Typewriter-Regular.otf'
p1457
sg21
g22
sbag7
(g8
g9
NtRp1458
(dp1459
g12
g13
sg14
S'STIXVariants'
p1460
sg16
I400
sg17
g13
sg18
g13
sg19
S'/usr/share/fonts/opentype/stix/STIXVariants-Regular.otf'
p1461
sg21
g22
sbag7
(g8
g9
NtRp1462
(dp1463
g12
g13
sg14
S'Latin Modern Sans'
p1464
sg16
I400
sg17
g13
sg18
g13
sg19
S'/usr/share/texmf/fonts/opentype/public/lm/lmsans10-regular.otf'
p1465
sg21
g22
sbag7
(g8
g9
NtRp1466
(dp1467
g12
g29
sg14
S'Times New Roman'
p1468
sg16
I700
sg17
g13
sg18
g13
sg19
S'/usr/share/fonts/truetype/msttcorefonts/Times_New_Roman_Bold_Italic.ttf'
p1469
sg21
g22
sbag7
(g8
g9
NtRp1470
(dp1471
g12
g13
sg14
S'Garuda'
p1472
sg16
I400
sg17
g13
sg18
g13
sg19
S'/usr/share/fonts/truetype/tlwg/Garuda.ttf'
p1473
sg21
g22
sbag7
(g8
g9
NtRp1474
(dp1475
g12
g13
sg14
S'mry_KacstQurn'
p1476
sg16
I400
sg17
g13
sg18
g13
sg19
S'/usr/share/fonts/truetype/kacst/mry_KacstQurn.ttf'
p1477
sg21
g22
sbag7
(g8
g9
NtRp1478
(dp1479
g12
g146
sg14
S'Latin Modern Sans'
p1480
sg16
I400
sg17
g13
sg18
g13
sg19
S'/usr/share/texmf/fonts/opentype/public/lm/lmsans10-oblique.otf'
p1481
sg21
g22
sbag7
(g8
g9
NtRp1482
(dp1483
g12
g13
sg14
S'Tibetan Machine Uni'
p1484
sg16
I400
sg17
g13
sg18
g13
sg19
S'/usr/share/fonts/truetype/tibetan-machine/TibetanMachineUni.ttf'
p1485
sg21
g22
sbag7
(g8
g9
NtRp1486
(dp1487
g12
g13
sg14
S'Latin Modern Sans Quotation'
p1488
sg16
I400
sg17
g13
sg18
g13
sg19
S'/usr/share/texmf/fonts/opentype/public/lm/lmsansquot8-regular.otf'
p1489
sg21
g22
sbag7
(g8
g9
NtRp1490
(dp1491
g12
g13
sg14
S'KacstOne'
p1492
sg16
I700
sg17
g13
sg18
g13
sg19
S'/usr/share/fonts/truetype/kacst-one/KacstOne-Bold.ttf'
p1493
sg21
g22
sbag7
(g8
g9
NtRp1494
(dp1495
g12
g13
sg14
S'Linux Libertine Display O'
p1496
sg16
I400
sg17
g13
sg18
g13
sg19
S'/usr/share/fonts/opentype/linux-libertine/LinLibertine_DR.otf'
p1497
sg21
g22
sbag7
(g8
g9
NtRp1498
(dp1499
g12
g13
sg14
S'UnGraphic'
p1500
sg16
I400
sg17
g13
sg18
g13
sg19
S'/usr/share/fonts/truetype/unfonts-core/UnGraphic.ttf'
p1501
sg21
g22
sbag7
(g8
g9
NtRp1502
(dp1503
g12
g13
sg14
S'Latin Modern Sans'
p1504
sg16
I400
sg17
g13
sg18
g13
sg19
S'/usr/share/texmf/fonts/opentype/public/lm/lmsans8-regular.otf'
p1505
sg21
g22
sbag7
(g8
g9
NtRp1506
(dp1507
g12
g13
sg14
S'KacstDigital'
p1508
sg16
I400
sg17
g13
sg18
g13
sg19
S'/usr/share/fonts/truetype/kacst/KacstDigital.ttf'
p1509
sg21
g22
sbag7
(g8
g9
NtRp1510
(dp1511
g12
g13
sg14
S'eufm10'
p1512
sg16
I400
sg17
g13
sg18
g13
sg19
S'/usr/share/fonts/truetype/lyx/eufm10.ttf'
p1513
sg21
g22
sbag7
(g8
g9
NtRp1514
(dp1515
g12
g13
sg14
S'esint10'
p1516
sg16
I400
sg17
g13
sg18
g13
sg19
S'/usr/share/fonts/truetype/lyx/esint10.ttf'
p1517
sg21
g22
sbag7
(g8
g9
NtRp1518
(dp1519
g12
g13
sg14
S'Latin Modern Roman'
p1520
sg16
I400
sg17
g13
sg18
g13
sg19
S'/usr/share/texmf/fonts/opentype/public/lm/lmroman17-regular.otf'
p1521
sg21
g22
sbag7
(g8
g9
NtRp1522
(dp1523
g12
g13
sg14
S'STIXIntegralsUpD'
p1524
sg16
I400
sg17
g13
sg18
g13
sg19
S'/usr/share/fonts/opentype/stix/STIXIntegralsUpD-Regular.otf'
p1525
sg21
g22
sbag7
(g8
g9
NtRp1526
(dp1527
g12
g29
sg14
S'MathJax_SansSerif'
p1528
sg16
I400
sg17
g13
sg18
g13
sg19
S'/usr/share/fonts/opentype/mathjax/MathJax_SansSerif-Italic.otf'
p1529
sg21
g22
sbag7
(g8
g9
NtRp1530
(dp1531
g12
g29
sg14
S'Liberation Serif'
p1532
sg16
I400
sg17
g13
sg18
g13
sg19
S'/usr/share/fonts/truetype/ttf-liberation/LiberationSerif-Italic.ttf'
p1533
sg21
g22
sbag7
(g8
g9
NtRp1534
(dp1535
g12
g13
sg14
S'Comic Sans MS'
p1536
sg16
I700
sg17
g13
sg18
g13
sg19
S'/usr/share/fonts/truetype/msttcorefonts/comicbd.ttf'
p1537
sg21
g22
sbag7
(g8
g9
NtRp1538
(dp1539
g12
g29
sg14
S'Verdana'
p1540
sg16
I400
sg17
g13
sg18
g13
sg19
S'/usr/share/fonts/truetype/msttcorefonts/Verdana_Italic.ttf'
p1541
sg21
g22
sbag7
(g8
g9
NtRp1542
(dp1543
g12
g146
sg14
S'Latin Modern Roman Demi'
p1544
sg16
I600
sg17
g13
sg18
g13
sg19
S'/usr/share/texmf/fonts/opentype/public/lm/lmromandemi10-oblique.otf'
p1545
sg21
g22
sbag7
(g8
g9
NtRp1546
(dp1547
g12
g13
sg14
S'Liberation Sans Narrow'
p1548
sg16
I700
sg17
g188
sg18
g13
sg19
S'/usr/share/fonts/truetype/liberation/LiberationSansNarrow-Bold.ttf'
p1549
sg21
g22
sbag7
(g8
g9
NtRp1550
(dp1551
g12
g13
sg14
S'Verdana'
p1552
sg16
I400
sg17
g13
sg18
g13
sg19
S'/usr/share/fonts/truetype/msttcorefonts/verdana.ttf'
p1553
sg21
g22
sbag7
(g8
g9
NtRp1554
(dp1555
g12
g13
sg14
S'Droid Sans Georgian'
p1556
sg16
I400
sg17
g13
sg18
g13
sg19
S'/usr/share/fonts/truetype/droid/DroidSansGeorgian.ttf'
p1557
sg21
g22
sbag7
(g8
g9
NtRp1558
(dp1559
g12
g13
sg14
S'IPAexMincho'
p1560
sg16
I400
sg17
g13
sg18
g13
sg19
S'/usr/share/fonts/truetype/fonts-japanese-mincho.ttf'
p1561
sg21
g22
sbag7
(g8
g9
NtRp1562
(dp1563
g12
g13
sg14
S'Comic Sans MS'
p1564
sg16
I700
sg17
g13
sg18
g13
sg19
S'/usr/share/fonts/truetype/msttcorefonts/Comic_Sans_MS_Bold.ttf'
p1565
sg21
g22
sbag7
(g8
g9
NtRp1566
(dp1567
g12
g13
sg14
S'Latin Modern Mono Light'
p1568
sg16
I400
sg17
g13
sg18
g13
sg19
S'/usr/share/texmf/fonts/opentype/public/lm/lmmonolt10-regular.otf'
p1569
sg21
g22
sbag7
(g8
g9
NtRp1570
(dp1571
g12
g29
sg14
S'Linux Libertine O'
p1572
sg16
I400
sg17
g13
sg18
g13
sg19
S'/usr/share/fonts/opentype/linux-libertine/LinLibertine_RI.otf'
p1573
sg21
g22
sbag7
(g8
g9
NtRp1574
(dp1575
g12
g13
sg14
S'Linux Biolinum O'
p1576
sg16
I400
sg17
g13
sg18
g13
sg19
S'/usr/share/fonts/opentype/linux-libertine/LinBiolinum_R.otf'
p1577
sg21
g22
sbag7
(g8
g9
NtRp1578
(dp1579
g12
g146
sg14
S'Latin Modern Mono Prop Light'
p1580
sg16
I200
sg17
g13
sg18
g13
sg19
S'/usr/share/texmf/fonts/opentype/public/lm/lmmonoproplt10-oblique.otf'
p1581
sg21
g22
sbag7
(g8
g9
NtRp1582
(dp1583
g12
g13
sg14
S'Latin Modern Roman'
p1584
sg16
I700
sg17
g13
sg18
g13
sg19
S'/usr/share/texmf/fonts/opentype/public/lm/lmroman5-bold.otf'
p1585
sg21
g22
sbag7
(g8
g9
NtRp1586
(dp1587
g12
g13
sg14
S'Padauk'
p1588
sg16
I700
sg17
g13
sg18
g13
sg19
S'/usr/share/fonts/truetype/padauk/Padauk-bold.ttf'
p1589
sg21
g22
sbag7
(g8
g9
NtRp1590
(dp1591
g12
g29
sg14
S'Courier New'
p1592
sg16
I400
sg17
g13
sg18
g13
sg19
S'/usr/share/fonts/truetype/msttcorefonts/couri.ttf'
p1593
sg21
g22
sbag7
(g8
g9
NtRp1594
(dp1595
g12
g13
sg14
S'Rekha'
p1596
sg16
I400
sg17
g13
sg18
g13
sg19
S'/usr/share/fonts/truetype/ttf-indic-fonts-core/Rekha.ttf'
p1597
sg21
g22
sbag7
(g8
g9
NtRp1598
(dp1599
g12
g146
sg14
S'Loma'
p1600
sg16
I400
sg17
g13
sg18
g13
sg19
S'/usr/share/fonts/truetype/tlwg/Loma-Oblique.ttf'
p1601
sg21
g22
sbag7
(g8
g9
NtRp1602
(dp1603
g12
g146
sg14
S'Garuda'
p1604
sg16
I700
sg17
g13
sg18
g13
sg19
S'/usr/share/fonts/truetype/tlwg/Garuda-BoldOblique.ttf'
p1605
sg21
g22
sbag7
(g8
g9
NtRp1606
(dp1607
g12
g13
sg14
S'MathJax_WinIE6'
p1608
sg16
I400
sg17
g13
sg18
g13
sg19
S'/usr/share/fonts/opentype/mathjax/MathJax_WinIE6-Regular.otf'
p1609
sg21
g22
sbag7
(g8
g9
NtRp1610
(dp1611
g12
g13
sg14
S'Arial Black'
p1612
sg16
I900
sg17
g13
sg18
g13
sg19
S'/usr/share/fonts/truetype/msttcorefonts/ariblk.ttf'
p1613
sg21
g22
sbag7
(g8
g9
NtRp1614
(dp1615
g12
g29
sg14
S'Trebuchet MS'
p1616
sg16
I700
sg17
g13
sg18
g13
sg19
S'/usr/share/fonts/truetype/msttcorefonts/Trebuchet_MS_Bold_Italic.ttf'
p1617
sg21
g22
sbag7
(g8
g9
NtRp1618
(dp1619
g12
g29
sg14
S'MathJax_Math'
p1620
sg16
I400
sg17
g13
sg18
g13
sg19
S'/usr/share/fonts/opentype/mathjax/MathJax_Math-Italic.otf'
p1621
sg21
g22
sbag7
(g8
g9
NtRp1622
(dp1623
g12
g13
sg14
S'Latin Modern Mono Light'
p1624
sg16
I700
sg17
g13
sg18
g13
sg19
S'/usr/share/texmf/fonts/opentype/public/lm/lmmonolt10-bold.otf'
p1625
sg21
g22
sbag7
(g8
g9
NtRp1626
(dp1627
g12
g13
sg14
S'GentiumAlt'
p1628
sg16
I400
sg17
g13
sg18
g13
sg19
S'/usr/share/fonts/truetype/gentium/GenAR102.ttf'
p1629
sg21
g22
sbag7
(g8
g9
NtRp1630
(dp1631
g12
g13
sg14
S'Verdana'
p1632
sg16
I700
sg17
g13
sg18
g13
sg19
S'/usr/share/fonts/truetype/msttcorefonts/Verdana_Bold.ttf'
p1633
sg21
g22
sbag7
(g8
g9
NtRp1634
(dp1635
g12
g146
sg14
S'Umpush'
p1636
sg16
I700
sg17
g13
sg18
g13
sg19
S'/usr/share/fonts/truetype/tlwg/Umpush-BoldOblique.ttf'
p1637
sg21
g22
sbag7
(g8
g9
NtRp1638
(dp1639
g12
g13
sg14
S'UnPilgi'
p1640
sg16
I400
sg17
g13
sg18
g13
sg19
S'/usr/share/fonts/truetype/unfonts-core/UnPilgi.ttf'
p1641
sg21
g22
sbag7
(g8
g9
NtRp1642
(dp1643
g12
g29
sg14
S'Droid Serif'
p1644
sg16
I400
sg17
g13
sg18
g13
sg19
S'/usr/share/fonts/truetype/droid/DroidSerif-Italic.ttf'
p1645
sg21
g22
sbag7
(g8
g9
NtRp1646
(dp1647
g12
g13
sg14
S'Tlwg Typo'
p1648
sg16
I700
sg17
g13
sg18
g13
sg19
S'/usr/share/fonts/truetype/tlwg/TlwgTypo-Bold.ttf'
p1649
sg21
g22
sbag7
(g8
g9
NtRp1650
(dp1651
g12
g29
sg14
S'Arial'
p1652
sg16
I400
sg17
g13
sg18
g13
sg19
S'/usr/share/fonts/truetype/msttcorefonts/Arial_Italic.ttf'
p1653
sg21
g22
sbag7
(g8
g9
NtRp1654
(dp1655
g12
g13
sg14
S'TlwgTypewriter'
p1656
sg16
I700
sg17
g13
sg18
g13
sg19
S'/usr/share/fonts/truetype/tlwg/TlwgTypewriter-Bold.ttf'
p1657
sg21
g22
sbag7
(g8
g9
NtRp1658
(dp1659
g12
g146
sg14
S'Waree'
p1660
sg16
I700
sg17
g13
sg18
g13
sg19
S'/usr/share/fonts/truetype/tlwg/Waree-BoldOblique.ttf'
p1661
sg21
g22
sbag7
(g8
g9
NtRp1662
(dp1663
g12
g13
sg14
S'STIXNonUnicode'
p1664
sg16
I700
sg17
g13
sg18
g13
sg19
S'/usr/share/fonts/opentype/stix/STIXNonUnicode-Bold.otf'
p1665
sg21
g22
sbag7
(g8
g9
NtRp1666
(dp1667
g12
g13
sg14
S'Waree'
p1668
sg16
I700
sg17
g13
sg18
g13
sg19
S'/usr/share/fonts/truetype/tlwg/Waree-Bold.ttf'
p1669
sg21
g22
sbag7
(g8
g9
NtRp1670
(dp1671
g12
g29
sg14
S'FreeSerif'
p1672
sg16
I700
sg17
g13
sg18
g13
sg19
S'/usr/share/fonts/truetype/freefont/FreeSerifBoldItalic.ttf'
p1673
sg21
g22
sbag7
(g8
g9
NtRp1674
(dp1675
g12
g13
sg14
S'Comic Sans MS'
p1676
sg16
I400
sg17
g13
sg18
g13
sg19
S'/usr/share/fonts/truetype/msttcorefonts/comic.ttf'
p1677
sg21
g22
sbag7
(g8
g9
NtRp1678
(dp1679
g12
g146
sg14
S'Latin Modern Mono Caps'
p1680
sg16
I400
sg17
g13
sg18
g13
sg19
S'/usr/share/texmf/fonts/opentype/public/lm/lmmonocaps10-oblique.otf'
p1681
sg21
g22
sbag7
(g8
g9
NtRp1682
(dp1683
g12
g13
sg14
S'STIXSizeThreeSym'
p1684
sg16
I700
sg17
g13
sg18
g13
sg19
S'/usr/share/fonts/opentype/stix/STIXSizeThreeSym-Bold.otf'
p1685
sg21
g22
sbag7
(g8
g9
NtRp1686
(dp1687
g12
g146
sg14
S'Tlwg Typo'
p1688
sg16
I400
sg17
g13
sg18
g13
sg19
S'/usr/share/fonts/truetype/tlwg/TlwgTypo-Oblique.ttf'
p1689
sg21
g22
sbag7
(g8
g9
NtRp1690
(dp1691
g12
g13
sg14
S'Droid Sans'
p1692
sg16
I700
sg17
g13
sg18
g13
sg19
S'/usr/share/fonts/truetype/droid/DroidSans-Bold.ttf'
p1693
sg21
g22
sbag7
(g8
g9
NtRp1694
(dp1695
g12
g13
sg14
S'Latin Modern Mono Prop Light'
p1696
sg16
I700
sg17
g13
sg18
g13
sg19
S'/usr/share/texmf/fonts/opentype/public/lm/lmmonoproplt10-bold.otf'
p1697
sg21
g22
sbag7
(g8
g9
NtRp1698
(dp1699
g12
g13
sg14
S'Arial'
p1700
sg16
I700
sg17
g13
sg18
g13
sg19
S'/usr/share/fonts/truetype/msttcorefonts/arialbd.ttf'
p1701
sg21
g22
sbag7
(g8
g9
NtRp1702
(dp1703
g12
g29
sg14
S'Ubuntu'
p1704
sg16
I500
sg17
g13
sg18
g13
sg19
S'/usr/share/fonts/truetype/ubuntu-font-family/Ubuntu-MI.ttf'
p1705
sg21
g22
sbag7
(g8
g9
NtRp1706
(dp1707
g12
g13
sg14
S'Kedage'
p1708
sg16
I400
sg17
g13
sg18
g13
sg19
S'/usr/share/fonts/truetype/ttf-indic-fonts-core/Kedage-n.ttf'
p1709
sg21
g22
sbag7
(g8
g9
NtRp1710
(dp1711
g12
g13
sg14
S'Arial'
p1712
sg16
I400
sg17
g13
sg18
g13
sg19
S'/usr/share/fonts/truetype/msttcorefonts/arial.ttf'
p1713
sg21
g22
sbag7
(g8
g9
NtRp1714
(dp1715
g12
g13
sg14
S'Latin Modern Roman Unslanted'
p1716
sg16
I400
sg17
g13
sg18
g13
sg19
S'/usr/share/texmf/fonts/opentype/public/lm/lmromanunsl10-regular.otf'
p1717
sg21
g22
sbag7
(g8
g9
NtRp1718
(dp1719
g12
g146
sg14
S'Latin Modern Sans'
p1720
sg16
I400
sg17
g13
sg18
g13
sg19
S'/usr/share/texmf/fonts/opentype/public/lm/lmsans9-oblique.otf'
p1721
sg21
g22
sbag7
(g8
g9
NtRp1722
(dp1723
g12
g146
sg14
S'TlwgMono'
p1724
sg16
I700
sg17
g13
sg18
g13
sg19
S'/usr/share/fonts/truetype/tlwg/TlwgMono-BoldOblique.ttf'
p1725
sg21
g22
sbag7
(g8
g9
NtRp1726
(dp1727
g12
g29
sg14
S'Linux Biolinum O'
p1728
sg16
I400
sg17
g13
sg18
g13
sg19
S'/usr/share/fonts/opentype/linux-libertine/LinBiolinum_RI.otf'
p1729
sg21
g22
sbag7
(g8
g9
NtRp1730
(dp1731
g12
g13
sg14
S'KacstQurn'
p1732
sg16
I400
sg17
g13
sg18
g13
sg19
S'/usr/share/fonts/truetype/kacst/KacstQurn.ttf'
p1733
sg21
g22
sbag7
(g8
g9
NtRp1734
(dp1735
g12
g13
sg14
S'Padauk Book'
p1736
sg16
I400
sg17
g13
sg18
g13
sg19
S'/usr/share/fonts/truetype/padauk/Padauk-book.ttf'
p1737
sg21
g22
sbag7
(g8
g9
NtRp1738
(dp1739
g12
g29
sg14
S'Arial'
p1740
sg16
I700
sg17
g13
sg18
g13
sg19
S'/usr/share/fonts/truetype/msttcorefonts/Arial_Bold_Italic.ttf'
p1741
sg21
g22
sbag7
(g8
g9
NtRp1742
(dp1743
g12
g13
sg14
S'KacstOffice'
p1744
sg16
I400
sg17
g13
sg18
g13
sg19
S'/usr/share/fonts/truetype/kacst/KacstOffice.ttf'
p1745
sg21
g22
sbag7
(g8
g9
NtRp1746
(dp1747
g12
g13
sg14
S'Abyssinica SIL'
p1748
sg16
I400
sg17
g13
sg18
g13
sg19
S'/usr/share/fonts/truetype/abyssinica/AbyssinicaSIL-R.ttf'
p1749
sg21
g22
sbag7
(g8
g9
NtRp1750
(dp1751
g12
g13
sg14
S'STIXIntegralsUpD'
p1752
sg16
I700
sg17
g13
sg18
g13
sg19
S'/usr/share/fonts/opentype/stix/STIXIntegralsUpD-Bold.otf'
p1753
sg21
g22
sbag7
(g8
g9
NtRp1754
(dp1755
g12
g13
sg14
S'Loma'
p1756
sg16
I400
sg17
g13
sg18
g13
sg19
S'/usr/share/fonts/truetype/tlwg/Loma.ttf'
p1757
sg21
g22
sbag7
(g8
g9
NtRp1758
(dp1759
g12
g13
sg14
S'MathJax_Caligraphic'
p1760
sg16
I700
sg17
g13
sg18
g13
sg19
S'/usr/share/fonts/opentype/mathjax/MathJax_Caligraphic-Bold.otf'
p1761
sg21
g22
sbag7
(g8
g9
NtRp1762
(dp1763
g12
g146
sg14
S'Latin Modern Sans'
p1764
sg16
I400
sg17
g13
sg18
g13
sg19
S'/usr/share/texmf/fonts/opentype/public/lm/lmsans17-oblique.otf'
p1765
sg21
g22
sbag7
(g8
g9
NtRp1766
(dp1767
g12
g146
sg14
S'Tlwg Typo'
p1768
sg16
I700
sg17
g13
sg18
g13
sg19
S'/usr/share/fonts/truetype/tlwg/TlwgTypo-BoldOblique.ttf'
p1769
sg21
g22
sbag7
(g8
g9
NtRp1770
(dp1771
g12
g13
sg14
S'KacstTitleL'
p1772
sg16
I400
sg17
g13
sg18
g13
sg19
S'/usr/share/fonts/truetype/kacst/KacstTitleL.ttf'
p1773
sg21
g22
sbag7
(g8
g9
NtRp1774
(dp1775
g12
g29
sg14
S'MathJax_Math'
p1776
sg16
I700
sg17
g13
sg18
g13
sg19
S'/usr/share/fonts/opentype/mathjax/MathJax_Math-BoldItalic.otf'
p1777
sg21
g22
sbag7
(g8
g9
NtRp1778
(dp1779
g12
g13
sg14
S'Times New Roman'
p1780
sg16
I700
sg17
g13
sg18
g13
sg19
S'/usr/share/fonts/truetype/msttcorefonts/Times_New_Roman_Bold.ttf'
p1781
sg21
g22
sbag7
(g8
g9
NtRp1782
(dp1783
g12
g13
sg14
S'Droid Sans Hebrew'
p1784
sg16
I400
sg17
g13
sg18
g13
sg19
S'/usr/share/fonts/truetype/droid/DroidSansHebrew-Regular.ttf'
p1785
sg21
g22
sbasS'defaultFamily'
p1786
(dp1787
S'afm'
p1788
S'Helvetica'
p1789
sS'ttf'
p1790
S'Bitstream Vera Sans'
p1791
ssS'ttffiles'
p1792
(lp1793
S'/usr/share/matplotlib/mpl-data/fonts/ttf/cmb10.ttf'
p1794
aS'/usr/share/matplotlib/mpl-data/fonts/ttf/cmex10.ttf'
p1795
aS'/usr/share/matplotlib/mpl-data/fonts/ttf/STIXNonUniIta.ttf'
p1796
aS'/usr/share/matplotlib/mpl-data/fonts/ttf/STIXSizOneSymReg.ttf'
p1797
aS'/usr/share/matplotlib/mpl-data/fonts/ttf/STIXSizThreeSymReg.ttf'
p1798
aS'/usr/share/matplotlib/mpl-data/fonts/ttf/STIXSizTwoSymBol.ttf'
p1799
aS'/usr/share/matplotlib/mpl-data/fonts/ttf/cmtt10.ttf'
p1800
aS'/usr/share/matplotlib/mpl-data/fonts/ttf/STIXGeneral.ttf'
p1801
aS'/usr/share/matplotlib/mpl-data/fonts/ttf/STIXSizThreeSymBol.ttf'
p1802
aS'/usr/share/matplotlib/mpl-data/fonts/ttf/STIXNonUni.ttf'
p1803
aS'/usr/share/matplotlib/mpl-data/fonts/ttf/STIXSizFiveSymReg.ttf'
p1804
aS'/usr/share/matplotlib/mpl-data/fonts/ttf/STIXSizOneSymBol.ttf'
p1805
aS'/usr/share/matplotlib/mpl-data/fonts/ttf/STIXGeneralBol.ttf'
p1806
aS'/usr/share/matplotlib/mpl-data/fonts/ttf/cmr10.ttf'
p1807
aS'/usr/share/matplotlib/mpl-data/fonts/ttf/STIXSizTwoSymReg.ttf'
p1808
aS'/usr/share/matplotlib/mpl-data/fonts/ttf/STIXSizFourSymReg.ttf'
p1809
aS'/usr/share/matplotlib/mpl-data/fonts/ttf/cmsy10.ttf'
p1810
aS'/usr/share/matplotlib/mpl-data/fonts/ttf/STIXNonUniBolIta.ttf'
p1811
aS'/usr/share/matplotlib/mpl-data/fonts/ttf/cmss10.ttf'
p1812
aS'/usr/share/matplotlib/mpl-data/fonts/ttf/STIXSizFourSymBol.ttf'
p1813
aS'/usr/share/matplotlib/mpl-data/fonts/ttf/STIXGeneralItalic.ttf'
p1814
aS'/usr/share/matplotlib/mpl-data/fonts/ttf/cmmi10.ttf'
p1815
aS'/usr/share/matplotlib/mpl-data/fonts/ttf/STIXNonUniBol.ttf'
p1816
aS'/usr/share/matplotlib/mpl-data/fonts/ttf/STIXGeneralBolIta.ttf'
p1817
aS'/usr/share/fonts/opentype/stix/STIXIntegralsUp-Regular.otf'
p1818
aS'/usr/share/fonts/truetype/kacst/KacstTitle.ttf'
p1819
aS'/usr/share/texmf/fonts/opentype/public/lm/lmroman8-italic.otf'
p1820
aS'/usr/share/texmf/fonts/opentype/public/lm/lmmonocaps10-regular.otf'
p1821
aS'/usr/share/fonts/truetype/kacst/KacstScreen.ttf'
p1822
aS'/usr/share/fonts/opentype/mathjax/MathJax_Math-Regular.otf'
p1823
aS'/usr/share/fonts/truetype/droid/DroidSansEthiopic-Bold.ttf'
p1824
aS'/usr/share/fonts/truetype/tlwg/Norasi-Oblique.ttf'
p1825
aS'/usr/share/texmf/fonts/opentype/public/lm/lmroman10-italic.otf'
p1826
aS'/usr/share/fonts/truetype/fonts-japanese-gothic.ttf'
p1827
aS'/usr/share/fonts/truetype/ttf-liberation/LiberationSerif-Regular.ttf'
p1828
aS'/usr/share/fonts/truetype/unfonts-core/UnDotum.ttf'
p1829
aS'/usr/share/fonts/opentype/linux-libertine/LinLibertine_RZ.otf'
p1830
aS'/usr/share/fonts/truetype/tlwg/Waree-Oblique.ttf'
p1831
aS'/usr/share/fonts/opentype/mathjax/MathJax_Main-Italic.otf'
p1832
aS'/usr/share/fonts/truetype/lyx/cmmi10.ttf'
p1833
aS'/usr/share/texmf/fonts/opentype/public/lm/lmmono10-regular.otf'
p1834
aS'/usr/share/fonts/truetype/msttcorefonts/Georgia_Bold_Italic.ttf'
p1835
aS'/usr/share/fonts/truetype/dejavu/DejaVuSerifCondensed-Bold.ttf'
p1836
aS'/usr/share/fonts/truetype/ttf-dejavu/DejaVuSans-Oblique.ttf'
p1837
aS'/usr/share/fonts/truetype/ttf-dejavu/DejaVuSans-BoldOblique.ttf'
p1838
aS'/usr/share/texmf/fonts/opentype/public/lm/lmroman12-regular.otf'
p1839
aS'/usr/share/fonts/truetype/tlwg/TlwgTypist.ttf'
p1840
aS'/usr/share/fonts/truetype/nanum/NanumGothic.ttf'
p1841
aS'/usr/share/fonts/truetype/msttcorefonts/Impact.ttf'
p1842
aS'/usr/share/fonts/truetype/droid/DroidNaskh-Regular.ttf'
p1843
aS'/usr/share/fonts/truetype/gentium/GenI102.ttf'
p1844
aS'/usr/share/fonts/truetype/msttcorefonts/andalemo.ttf'
p1845
aS'/usr/share/fonts/truetype/msttcorefonts/arialbi.ttf'
p1846
aS'/usr/share/fonts/truetype/liberation/LiberationSans-Italic.ttf'
p1847
aS'/usr/share/fonts/truetype/dejavu/DejaVuSansMono-Oblique.ttf'
p1848
aS'/usr/share/fonts/opentype/stix/STIXIntegralsUp-Bold.otf'
p1849
aS'/usr/share/texmf/fonts/opentype/public/lm/lmroman12-bold.otf'
p1850
aS'/usr/share/fonts/truetype/unfonts-core/UnBatang.ttf'
p1851
aS'/usr/share/fonts/truetype/msttcorefonts/courbd.ttf'
p1852
aS'/usr/share/fonts/truetype/font-awesome/fontawesome-webfont.ttf'
p1853
aS'/usr/share/fonts/truetype/msttcorefonts/Trebuchet_MS.ttf'
p1854
aS'/usr/share/fonts/truetype/droid/DroidSansHebrew-Bold.ttf'
p1855
aS'/usr/share/fonts/truetype/droid/DroidNaskh-Bold.ttf'
p1856
aS'/usr/share/fonts/truetype/ttf-dejavu/DejaVuSerifCondensed-Bold.ttf'
p1857
aS'/usr/share/fonts/truetype/ubuntu-font-family/UbuntuMono-R.ttf'
p1858
aS'/usr/share/fonts/truetype/msttcorefonts/Trebuchet_MS_Italic.ttf'
p1859
aS'/usr/share/fonts/truetype/ttf-liberation/LiberationSerif-Bold.ttf'
p1860
aS'/usr/share/fonts/truetype/unfonts-core/UnDinaru.ttf'
p1861
aS'/usr/share/fonts/truetype/droid/DroidSerif-Regular.ttf'
p1862
aS'/usr/share/texmf/fonts/opentype/public/lm/lmroman5-regular.otf'
p1863
aS'/usr/share/fonts/truetype/msttcorefonts/Arial.ttf'
p1864
aS'/usr/share/fonts/truetype/msttcorefonts/times.ttf'
p1865
aS'/usr/share/fonts/truetype/unfonts-core/UnGraphicBold.ttf'
p1866
aS'/usr/share/texmf/fonts/opentype/public/lm/lmmono10-italic.otf'
p1867
aS'/usr/share/fonts/truetype/kacst/KacstNaskh.ttf'
p1868
aS'/usr/share/fonts/truetype/msttcorefonts/trebuc.ttf'
p1869
aS'/usr/share/fonts/truetype/tlwg/Kinnari-BoldItalic.ttf'
p1870
aS'/usr/share/fonts/truetype/tlwg/Sawasdee.ttf'
p1871
aS'/usr/share/fonts/opentype/mathjax/MathJax_Fraktur-Bold.otf'
p1872
aS'/usr/share/fonts/truetype/dejavu/DejaVuSansMono-BoldOblique.ttf'
p1873
aS'/usr/share/fonts/truetype/unfonts-core/UnDinaruBold.ttf'
p1874
aS'/usr/share/fonts/truetype/freefont/FreeSansBold.ttf'
p1875
aS'/usr/share/fonts/truetype/liberation/LiberationSerif-Regular.ttf'
p1876
aS'/usr/share/texmf/fonts/opentype/public/lm/lmmono8-regular.otf'
p1877
aS'/usr/share/fonts/truetype/tlwg/Purisa-Bold.ttf'
p1878
aS'/usr/share/fonts/truetype/tlwg/TlwgTypist-Bold.ttf'
p1879
aS'/usr/share/texmf/fonts/opentype/public/lm/lmmonoprop10-oblique.otf'
p1880
aS'/usr/share/fonts/truetype/kacst/KacstPoster.ttf'
p1881
aS'/usr/share/fonts/truetype/tlwg/Purisa.ttf'
p1882
aS'/usr/share/fonts/opentype/stix/STIXSizeOneSym-Bold.otf'
p1883
aS'/usr/share/texmf/fonts/opentype/public/lm/lmromandunh10-regular.otf'
p1884
aS'/usr/share/fonts/truetype/msttcorefonts/Georgia_Italic.ttf'
p1885
aS'/usr/share/fonts/truetype/ubuntu-font-family/Ubuntu-LI.ttf'
p1886
aS'/usr/share/fonts/truetype/droid/DroidSansMono.ttf'
p1887
aS'/usr/share/fonts/truetype/tlwg/Umpush-Oblique.ttf'
p1888
aS'/usr/share/fonts/truetype/nanum/NanumGothicBold.ttf'
p1889
aS'/usr/share/fonts/truetype/liberation/LiberationMono-BoldItalic.ttf'
p1890
aS'/usr/share/fonts/truetype/ttf-dejavu/DejaVuSans.ttf'
p1891
aS'/usr/share/fonts/truetype/ubuntu-font-family/UbuntuMono-B.ttf'
p1892
aS'/usr/share/fonts/opentype/ipafont-gothic/ipag.ttf'
p1893
aS'/usr/share/fonts/truetype/lyx/cmsy10.ttf'
p1894
aS'/usr/share/fonts/truetype/openoffice/opens___.ttf'
p1895
aS'/usr/share/fonts/truetype/tlwg/Norasi-Italic.ttf'
p1896
aS'/usr/share/fonts/truetype/droid/DroidSansFallbackFull.ttf'
p1897
aS'/usr/share/fonts/truetype/ttf-khmeros-core/KhmerOSsys.ttf'
p1898
aS'/usr/share/fonts/truetype/tlwg/TlwgTypist-Oblique.ttf'
p1899
aS'/usr/share/fonts/truetype/tlwg/Norasi.ttf'
p1900
aS'/usr/share/fonts/truetype/dejavu/DejaVuSerif.ttf'
p1901
aS'/usr/share/texmf/fonts/opentype/public/lm/lmroman12-italic.otf'
p1902
aS'/usr/share/fonts/truetype/ttf-indic-fonts-core/MuktiNarrowBold.ttf'
p1903
aS'/usr/share/fonts/truetype/msttcorefonts/verdanab.ttf'
p1904
aS'/usr/share/texmf/fonts/opentype/public/lm/lmsans12-regular.otf'
p1905
aS'/usr/share/fonts/truetype/freefont/FreeSerifBold.ttf'
p1906
aS'/usr/share/fonts/truetype/ubuntu-font-family/Ubuntu-RI.ttf'
p1907
aS'/usr/share/fonts/truetype/nanum/NanumBarunGothic.ttf'
p1908
aS'/usr/share/texmf/fonts/opentype/public/lm/lmroman7-italic.otf'
p1909
aS'/usr/share/fonts/truetype/unfonts-core/UnDinaruLight.ttf'
p1910
aS'/usr/share/texmf/fonts/opentype/public/lm-math/latinmodernmath-regular.otf'
p1911
aS'/usr/share/texmf/fonts/opentype/public/lm/lmroman9-italic.otf'
p1912
aS'/usr/share/fonts/opentype/mathjax/MathJax_WinChrome-Regular.otf'
p1913
aS'/usr/share/fonts/opentype/mathjax/MathJax_SansSerif-Bold.otf'
p1914
aS'/usr/share/fonts/truetype/ubuntu-font-family/UbuntuMono-BI.ttf'
p1915
aS'/usr/share/fonts/truetype/ttf-indic-fonts-core/lohit_ta.ttf'
p1916
aS'/usr/share/fonts/truetype/tlwg/Kinnari.ttf'
p1917
aS'/usr/share/fonts/opentype/stix/STIXGeneral-Regular.otf'
p1918
aS'/usr/share/fonts/truetype/msttcorefonts/timesbd.ttf'
p1919
aS'/usr/share/fonts/truetype/msttcorefonts/Trebuchet_MS_Bold.ttf'
p1920
aS'/usr/share/texmf/fonts/opentype/public/lm/lmroman8-bold.otf'
p1921
aS'/usr/share/fonts/truetype/tlwg/TlwgMono.ttf'
p1922
aS'/usr/share/texmf/fonts/opentype/public/lm/lmromancaps10-regular.otf'
p1923
aS'/usr/share/fonts/truetype/msttcorefonts/Arial_Bold.ttf'
p1924
aS'/usr/share/fonts/truetype/msttcorefonts/timesbi.ttf'
p1925
aS'/usr/share/fonts/truetype/tlwg/Purisa-Oblique.ttf'
p1926
aS'/usr/share/fonts/truetype/tlwg/Kinnari-Italic.ttf'
p1927
aS'/usr/share/fonts/truetype/ttf-dejavu/DejaVuSerifCondensed.ttf'
p1928
aS'/usr/share/fonts/opentype/stix/STIXSizeOneSym-Regular.otf'
p1929
aS'/usr/share/fonts/truetype/freefont/FreeMonoBold.ttf'
p1930
aS'/usr/share/fonts/truetype/msttcorefonts/impact.ttf'
p1931
aS'/usr/share/fonts/truetype/ubuntu-font-family/UbuntuMono-RI.ttf'
p1932
aS'/usr/share/fonts/truetype/dejavu/DejaVuSansCondensed-Bold.ttf'
p1933
aS'/usr/share/fonts/truetype/tlwg/TlwgTypewriter-Oblique.ttf'
p1934
aS'/usr/share/texmf/fonts/opentype/public/lm/lmmonoproplt10-boldoblique.otf'
p1935
aS'/usr/share/fonts/truetype/lyx/msam10.ttf'
p1936
aS'/usr/share/fonts/truetype/ubuntu-font-family/Ubuntu-M.ttf'
p1937
aS'/usr/share/fonts/truetype/tlwg/Garuda-Bold.ttf'
p1938
aS'/usr/share/fonts/truetype/ttf-liberation/LiberationSans-Italic.ttf'
p1939
aS'/usr/share/fonts/truetype/kacst/KacstLetter.ttf'
p1940
aS'/usr/share/fonts/truetype/msttcorefonts/verdanaz.ttf'
p1941
aS'/usr/share/fonts/truetype/ubuntu-font-family/Ubuntu-BI.ttf'
p1942
aS'/usr/share/fonts/opentype/linux-libertine/LinLibertine_RZI.otf'
p1943
aS'/usr/share/fonts/truetype/ttf-dejavu/DejaVuSerif-Italic.ttf'
p1944
aS'/usr/share/fonts/truetype/dejavu/DejaVuSans-Oblique.ttf'
p1945
aS'/usr/share/fonts/opentype/stix/STIXGeneral-Italic.otf'
p1946
aS'/usr/share/fonts/opentype/linux-libertine/LinLibertine_R.otf'
p1947
aS'/usr/share/fonts/truetype/dejavu/DejaVuSansMono-Bold.ttf'
p1948
aS'/usr/share/fonts/truetype/dejavu/DejaVuSansCondensed-Oblique.ttf'
p1949
aS'/usr/share/fonts/truetype/nanum/NanumBarunGothicBold.ttf'
p1950
aS'/usr/share/fonts/truetype/ttf-dejavu/DejaVuSansCondensed-BoldOblique.ttf'
p1951
aS'/usr/share/fonts/opentype/mathjax/MathJax_Size4-Regular.otf'
p1952
aS'/usr/share/fonts/truetype/ttf-dejavu/DejaVuSansCondensed-Bold.ttf'
p1953
aS'/usr/share/fonts/truetype/tlwg/TlwgMono-Bold.ttf'
p1954
aS'/usr/share/fonts/truetype/liberation/LiberationMono-Italic.ttf'
p1955
aS'/usr/share/fonts/truetype/liberation/LiberationSerif-BoldItalic.ttf'
p1956
aS'/usr/share/fonts/truetype/ttf-liberation/LiberationSansNarrow-Italic.ttf'
p1957
aS'/usr/share/texmf/fonts/opentype/public/lm/lmromanslant8-regular.otf'
p1958
aS'/usr/share/fonts/truetype/liberation/LiberationSerif-Bold.ttf'
p1959
aS'/usr/share/fonts/opentype/stix/STIXGeneral-BoldItalic.otf'
p1960
aS'/usr/share/fonts/truetype/ttf-dejavu/DejaVuSansMono-Bold.ttf'
p1961
aS'/usr/share/fonts/truetype/ttf-liberation/LiberationSerif-BoldItalic.ttf'
p1962
aS'/usr/share/texmf/fonts/opentype/public/lm/lmmonolt10-boldoblique.otf'
p1963
aS'/usr/share/fonts/truetype/dejavu/DejaVuSerifCondensed.ttf'
p1964
aS'/usr/share/fonts/truetype/ttf-indic-fonts-core/utkal.ttf'
p1965
aS'/usr/share/fonts/opentype/linux-libertine/LinBiolinum_RB.otf'
p1966
aS'/usr/share/fonts/truetype/ttf-indic-fonts-core/MuktiNarrow.ttf'
p1967
aS'/usr/share/texmf/fonts/opentype/public/lm/lmroman6-bold.otf'
p1968
aS'/usr/share/texmf/fonts/opentype/public/lm/lmmonoprop10-regular.otf'
p1969
aS'/usr/share/fonts/truetype/tlwg/Norasi-Bold.ttf'
p1970
aS'/usr/share/fonts/truetype/msttcorefonts/courbi.ttf'
p1971
aS'/usr/share/fonts/truetype/tlwg/Kinnari-BoldOblique.ttf'
p1972
aS'/usr/share/fonts/truetype/ttf-indic-fonts-core/Malige-n.ttf'
p1973
aS'/usr/share/fonts/truetype/msttcorefonts/georgia.ttf'
p1974
aS'/usr/share/texmf/fonts/opentype/public/lm/lmroman10-regular.otf'
p1975
aS'/usr/share/fonts/truetype/kacst-one/KacstOne.ttf'
p1976
aS'/usr/share/texmf/fonts/opentype/public/lm/lmsans10-boldoblique.otf'
p1977
aS'/usr/share/fonts/truetype/ttf-indic-fonts-core/lohit_bn.ttf'
p1978
aS'/usr/share/texmf/fonts/opentype/public/lm/lmromanslant9-regular.otf'
p1979
aS'/usr/share/texmf/fonts/opentype/public/lm/lmmonoslant10-regular.otf'
p1980
aS'/usr/share/texmf/fonts/opentype/public/lm/lmsansquot8-boldoblique.otf'
p1981
aS'/usr/share/fonts/truetype/ttf-punjabi-fonts/Saab.ttf'
p1982
aS'/usr/share/fonts/truetype/kacst/KacstBook.ttf'
p1983
aS'/usr/share/fonts/truetype/droid/DroidSerif-BoldItalic.ttf'
p1984
aS'/usr/share/fonts/truetype/msttcorefonts/georgiai.ttf'
p1985
aS'/usr/share/fonts/truetype/lyx/wasy10.ttf'
p1986
aS'/usr/share/fonts/truetype/ttf-indic-fonts-core/Pothana2000.ttf'
p1987
aS'/usr/share/fonts/truetype/dejavu/DejaVuSansCondensed.ttf'
p1988
aS'/usr/share/fonts/opentype/stix/STIXNonUnicode-Italic.otf'
p1989
aS'/usr/share/fonts/truetype/dejavu/DejaVuSansCondensed-BoldOblique.ttf'
p1990
aS'/usr/share/fonts/truetype/unfonts-core/UnGungseo.ttf'
p1991
aS'/usr/share/fonts/truetype/gentium/GenAI102.ttf'
p1992
aS'/usr/share/texmf/fonts/opentype/public/lm/lmroman8-regular.otf'
p1993
aS'/usr/share/fonts/truetype/msttcorefonts/Verdana_Bold_Italic.ttf'
p1994
aS'/usr/share/fonts/truetype/ubuntu-font-family/Ubuntu-B.ttf'
p1995
aS'/usr/share/fonts/truetype/freefont/FreeSansBoldOblique.ttf'
p1996
aS'/usr/share/texmf/fonts/opentype/public/lm/lmsans12-oblique.otf'
p1997
aS'/usr/share/fonts/opentype/stix/STIXNonUnicode-Regular.otf'
p1998
aS'/usr/share/texmf/fonts/opentype/public/lm/lmsansdemicond10-regular.otf'
p1999
aS'/usr/share/fonts/truetype/padauk/Padauk-bookbold.ttf'
p2000
aS'/usr/share/fonts/truetype/freefont/FreeSans.ttf'
p2001
aS'/usr/share/fonts/truetype/nanum/NanumMyeongjoBold.ttf'
p2002
aS'/usr/share/fonts/truetype/dejavu/DejaVuSerif-Bold.ttf'
p2003
aS'/usr/share/fonts/truetype/tlwg/Kinnari-Oblique.ttf'
p2004
aS'/usr/share/fonts/truetype/tlwg/Umpush-Light.ttf'
p2005
aS'/usr/share/fonts/truetype/droid/DroidSansEthiopic-Regular.ttf'
p2006
aS'/usr/share/fonts/truetype/unfonts-core/UnBatangBold.ttf'
p2007
aS'/usr/share/fonts/truetype/tlwg/Purisa-BoldOblique.ttf'
p2008
aS'/usr/share/fonts/truetype/msttcorefonts/georgiaz.ttf'
p2009
aS'/usr/share/fonts/truetype/dejavu/DejaVuSans.ttf'
p2010
aS'/usr/share/fonts/opentype/linux-libertine/LinBiolinum_K.otf'
p2011
aS'/usr/share/fonts/opentype/ipafont-mincho/ipam.ttf'
p2012
aS'/usr/share/fonts/truetype/freefont/FreeMonoOblique.ttf'
p2013
aS'/usr/share/fonts/opentype/mathjax/MathJax_Size1-Regular.otf'
p2014
aS'/usr/share/fonts/opentype/stix/STIXNonUnicode-BoldItalic.otf'
p2015
aS'/usr/share/fonts/opentype/stix/STIXSizeTwoSym-Regular.otf'
p2016
aS'/usr/share/fonts/truetype/msttcorefonts/webdings.ttf'
p2017
aS'/usr/share/fonts/truetype/liberation/LiberationSansNarrow-Regular.ttf'
p2018
aS'/usr/share/fonts/truetype/msttcorefonts/trebucit.ttf'
p2019
aS'/usr/share/fonts/opentype/stix/STIXVariants-Bold.otf'
p2020
aS'/usr/share/texmf/fonts/opentype/public/lm/lmsansquot8-oblique.otf'
p2021
aS'/usr/share/fonts/truetype/msttcorefonts/Comic_Sans_MS.ttf'
p2022
aS'/usr/share/fonts/opentype/stix/STIXIntegralsD-Regular.otf'
p2023
aS'/usr/share/fonts/truetype/tlwg/Sawasdee-Oblique.ttf'
p2024
aS'/usr/share/texmf/fonts/opentype/public/lm/lmroman10-bolditalic.otf'
p2025
aS'/usr/share/fonts/opentype/stix/STIXIntegralsD-Bold.otf'
p2026
aS'/usr/share/fonts/truetype/ttf-khmeros-core/KhmerOS.ttf'
p2027
aS'/usr/share/fonts/truetype/padauk/Padauk.ttf'
p2028
aS'/usr/share/fonts/truetype/kacst/KacstDecorative.ttf'
p2029
aS'/usr/share/texmf/fonts/opentype/public/lm/lmmonoproplt10-regular.otf'
p2030
aS'/usr/share/fonts/truetype/tlwg/Waree.ttf'
p2031
aS'/usr/share/fonts/truetype/freefont/FreeMono.ttf'
p2032
aS'/usr/share/texmf/fonts/opentype/public/lm/lmmono9-regular.otf'
p2033
aS'/usr/share/fonts/opentype/stix/STIXIntegralsUpSm-Bold.otf'
p2034
aS'/usr/share/texmf/fonts/opentype/public/lm/lmroman10-bold.otf'
p2035
aS'/usr/share/fonts/opentype/linux-libertine/LinLibertine_I.otf'
p2036
aS'/usr/share/fonts/truetype/unfonts-core/UnPilgiBold.ttf'
p2037
aS'/usr/share/fonts/truetype/ttf-liberation/LiberationSans-Regular.ttf'
p2038
aS'/usr/share/fonts/truetype/ttf-liberation/LiberationSansNarrow-Regular.ttf'
p2039
aS'/usr/share/texmf/fonts/opentype/public/lm/lmroman7-regular.otf'
p2040
aS'/usr/share/fonts/truetype/tlwg/Umpush.ttf'
p2041
aS'/usr/share/fonts/truetype/msttcorefonts/Times_New_Roman.ttf'
p2042
aS'/usr/share/texmf/fonts/opentype/public/lm/lmsans10-bold.otf'
p2043
aS'/usr/share/fonts/truetype/ttf-dejavu/DejaVuSansMono.ttf'
p2044
aS'/usr/share/fonts/truetype/ttf-punjabi-fonts/lohit_pa.ttf'
p2045
aS'/usr/share/fonts/truetype/liberation/LiberationMono-Bold.ttf'
p2046
aS'/usr/share/fonts/truetype/msttcorefonts/Georgia_Bold.ttf'
p2047
aS'/usr/share/fonts/truetype/dejavu/DejaVuSans-Bold.ttf'
p2048
aS'/usr/share/fonts/truetype/dejavu/DejaVuSerif-BoldItalic.ttf'
p2049
aS'/usr/share/fonts/truetype/sinhala/lklug.ttf'
p2050
aS'/usr/share/fonts/truetype/ttf-indic-fonts-core/lohit_hi.ttf'
p2051
aS'/usr/share/fonts/truetype/msttcorefonts/Courier_New_Bold.ttf'
p2052
aS'/usr/share/fonts/opentype/font-awesome/FontAwesome.otf'
p2053
aS'/usr/share/fonts/truetype/ubuntu-font-family/Ubuntu-R.ttf'
p2054
aS'/usr/share/fonts/truetype/dejavu/DejaVuSans-BoldOblique.ttf'
p2055
aS'/usr/share/fonts/truetype/tlwg/TlwgMono-Oblique.ttf'
p2056
aS'/usr/share/fonts/opentype/mathjax/MathJax_Main-Regular.otf'
p2057
aS'/usr/share/fonts/truetype/msttcorefonts/Georgia.ttf'
p2058
aS'/usr/share/fonts/truetype/lyx/msbm10.ttf'
p2059
aS'/usr/share/fonts/truetype/dejavu/DejaVuSerif-Italic.ttf'
p2060
aS'/usr/share/fonts/truetype/dejavu/DejaVuSerifCondensed-Italic.ttf'
p2061
aS'/usr/share/fonts/truetype/msttcorefonts/Verdana.ttf'
p2062
aS'/usr/share/fonts/truetype/tlwg/TlwgTypist-BoldOblique.ttf'
p2063
aS'/usr/share/fonts/truetype/lao/Phetsarath_OT.ttf'
p2064
aS'/usr/share/fonts/truetype/ttf-dejavu/DejaVuSansCondensed-Oblique.ttf'
p2065
aS'/usr/share/fonts/truetype/msttcorefonts/cour.ttf'
p2066
aS'/usr/share/fonts/truetype/takao-gothic/TakaoPGothic.ttf'
p2067
aS'/usr/share/fonts/truetype/droid/DroidSans.ttf'
p2068
aS'/usr/share/fonts/opentype/stix/STIXSizeFiveSym-Regular.otf'
p2069
aS'/usr/share/fonts/truetype/ttf-indic-fonts-core/Kedage-b.ttf'
p2070
aS'/usr/share/fonts/truetype/ttf-dejavu/DejaVuSerif-Bold.ttf'
p2071
aS'/usr/share/fonts/truetype/msttcorefonts/Courier_New.ttf'
p2072
aS'/usr/share/texmf/fonts/opentype/public/lm/lmmono12-regular.otf'
p2073
aS'/usr/share/fonts/opentype/mathjax/MathJax_AMS-Regular.otf'
p2074
aS'/usr/share/fonts/truetype/tlwg/Norasi-BoldItalic.ttf'
p2075
aS'/usr/share/fonts/truetype/tlwg/Umpush-Bold.ttf'
p2076
aS'/usr/share/fonts/truetype/liberation/LiberationSans-BoldItalic.ttf'
p2077
aS'/usr/share/fonts/truetype/ttf-liberation/LiberationSans-BoldItalic.ttf'
p2078
aS'/usr/share/fonts/truetype/ttf-indic-fonts-core/Vemana.ttf'
p2079
aS'/usr/share/fonts/truetype/tlwg/Norasi-BoldOblique.ttf'
p2080
aS'/usr/share/texmf/fonts/opentype/public/lm/lmmonoltcond10-regular.otf'
p2081
aS'/usr/share/texmf/fonts/opentype/public/lm/lmromandemi10-regular.otf'
p2082
aS'/usr/share/fonts/truetype/ttf-dejavu/DejaVuSansMono-BoldOblique.ttf'
p2083
aS'/usr/share/fonts/opentype/mathjax/MathJax_Caligraphic-Regular.otf'
p2084
aS'/usr/share/fonts/truetype/ttf-dejavu/DejaVuSans-Bold.ttf'
p2085
aS'/usr/share/fonts/truetype/ubuntu-font-family/Ubuntu-L.ttf'
p2086
aS'/usr/share/texmf/fonts/opentype/public/lm/lmroman9-regular.otf'
p2087
aS'/usr/share/texmf/fonts/opentype/public/lm/lmsansdemicond10-oblique.otf'
p2088
aS'/usr/share/fonts/opentype/linux-libertine/LinLibertine_RB.otf'
p2089
aS'/usr/share/fonts/truetype/dejavu/DejaVuSans-ExtraLight.ttf'
p2090
aS'/usr/share/fonts/truetype/kacst/KacstFarsi.ttf'
p2091
aS'/usr/share/fonts/opentype/stix/STIXSizeFourSym-Bold.otf'
p2092
aS'/usr/share/fonts/truetype/msttcorefonts/Andale_Mono.ttf'
p2093
aS'/usr/share/texmf/fonts/opentype/public/lm/lmromanslant17-regular.otf'
p2094
aS'/usr/share/fonts/truetype/msttcorefonts/Courier_New_Italic.ttf'
p2095
aS'/usr/share/texmf/fonts/opentype/public/lm/lmmonoltcond10-oblique.otf'
p2096
aS'/usr/share/fonts/truetype/tlwg/Loma-BoldOblique.ttf'
p2097
aS'/usr/share/fonts/truetype/tlwg/TlwgTypewriter.ttf'
p2098
aS'/usr/share/fonts/opentype/mathjax/MathJax_Fraktur-Regular.otf'
p2099
aS'/usr/share/texmf/fonts/opentype/public/lm/lmroman7-bold.otf'
p2100
aS'/usr/share/fonts/truetype/ttf-indic-fonts-core/gargi.ttf'
p2101
aS'/usr/share/texmf/fonts/opentype/public/lm/lmroman9-bold.otf'
p2102
aS'/usr/share/fonts/opentype/ipafont-gothic/ipagp.ttf'
p2103
aS'/usr/share/fonts/opentype/stix/STIXSizeThreeSym-Regular.otf'
p2104
aS'/usr/share/fonts/truetype/ttf-dejavu/DejaVuSerifCondensed-Italic.ttf'
p2105
aS'/usr/share/fonts/truetype/msttcorefonts/Arial_Black.ttf'
p2106
aS'/usr/share/fonts/truetype/msttcorefonts/Webdings.ttf'
p2107
aS'/usr/share/texmf/fonts/opentype/public/lm/lmsans8-oblique.otf'
p2108
aS'/usr/share/fonts/truetype/unfonts-core/UnDotumBold.ttf'
p2109
aS'/usr/share/fonts/truetype/freefont/FreeMonoBoldOblique.ttf'
p2110
aS'/usr/share/fonts/opentype/mathjax/MathJax_Size2-Regular.otf'
p2111
aS'/usr/share/fonts/truetype/msttcorefonts/ariali.ttf'
p2112
aS'/usr/share/fonts/opentype/mathjax/MathJax_Size3-Regular.otf'
p2113
aS'/usr/share/fonts/truetype/msttcorefonts/trebucbi.ttf'
p2114
aS'/usr/share/fonts/truetype/kacst/KacstArt.ttf'
p2115
aS'/usr/share/fonts/truetype/liberation/LiberationSansNarrow-BoldItalic.ttf'
p2116
aS'/usr/share/fonts/truetype/msttcorefonts/timesi.ttf'
p2117
aS'/usr/share/fonts/truetype/msttcorefonts/Times_New_Roman_Italic.ttf'
p2118
aS'/usr/share/fonts/opentype/stix/STIXIntegralsSm-Bold.otf'
p2119
aS'/usr/share/fonts/truetype/liberation/LiberationSans-Regular.ttf'
p2120
aS'/usr/share/fonts/truetype/ubuntu-font-family/Ubuntu-C.ttf'
p2121
aS'/usr/share/texmf/fonts/opentype/public/lm/lmromanslant12-regular.otf'
p2122
aS'/usr/share/texmf/fonts/opentype/public/lm/lmsans17-regular.otf'
p2123
aS'/usr/share/fonts/opentype/stix/STIXSizeTwoSym-Bold.otf'
p2124
aS'/usr/share/fonts/truetype/msttcorefonts/Courier_New_Bold_Italic.ttf'
p2125
aS'/usr/share/fonts/opentype/mathjax/MathJax_Main-Bold.otf'
p2126
aS'/usr/share/fonts/opentype/ipaexfont-mincho/ipaexm.ttf'
p2127
aS'/usr/share/fonts/truetype/ttf-indic-fonts-core/Rachana_04.ttf'
p2128
aS'/usr/share/fonts/truetype/tlwg/Kinnari-Bold.ttf'
p2129
aS'/usr/share/fonts/opentype/ipaexfont-gothic/ipaexg.ttf'
p2130
aS'/usr/share/fonts/truetype/tlwg/TlwgTypewriter-BoldOblique.ttf'
p2131
aS'/usr/share/fonts/opentype/mathjax/MathJax_Script-Regular.otf'
p2132
aS'/usr/share/fonts/truetype/freefont/FreeSerif.ttf'
p2133
aS'/usr/share/texmf/fonts/opentype/public/lm/lmromanslant10-regular.otf'
p2134
aS'/usr/share/fonts/truetype/droid/DroidSansArmenian.ttf'
p2135
aS'/usr/share/fonts/truetype/tlwg/Sawasdee-BoldOblique.ttf'
p2136
aS'/usr/share/fonts/truetype/tlwg/Sawasdee-Bold.ttf'
p2137
aS'/usr/share/fonts/opentype/stix/STIXIntegralsSm-Regular.otf'
p2138
aS'/usr/share/fonts/truetype/droid/DroidSansThai.ttf'
p2139
aS'/usr/share/fonts/truetype/tlwg/Garuda-Oblique.ttf'
p2140
aS'/usr/share/fonts/truetype/lyx/cmex10.ttf'
p2141
aS'/usr/share/fonts/truetype/ttf-indic-fonts-core/lohit_gu.ttf'
p2142
aS'/usr/share/texmf/fonts/opentype/public/lm/lmsansquot8-bold.otf'
p2143
aS'/usr/share/fonts/truetype/nanum/NanumMyeongjo.ttf'
p2144
aS'/usr/share/fonts/opentype/linux-libertine/LinLibertine_M.otf'
p2145
aS'/usr/share/fonts/opentype/stix/STIXGeneral-Bold.otf'
p2146
aS'/usr/share/fonts/truetype/tlwg/Loma-Bold.ttf'
p2147
aS'/usr/share/fonts/truetype/kacst/KacstPen.ttf'
p2148
aS'/usr/share/fonts/opentype/stix/STIXSizeFourSym-Regular.otf'
p2149
aS'/usr/share/fonts/truetype/msttcorefonts/trebucbd.ttf'
p2150
aS'/usr/share/fonts/opentype/linux-libertine/LinLibertine_RBI.otf'
p2151
aS'/usr/share/fonts/opentype/ipafont-mincho/ipamp.ttf'
p2152
aS'/usr/share/fonts/truetype/msttcorefonts/georgiab.ttf'
p2153
aS'/usr/share/fonts/truetype/freefont/FreeSerifItalic.ttf'
p2154
aS'/usr/share/texmf/fonts/opentype/public/lm/lmromanslant10-bold.otf'
p2155
aS'/usr/share/texmf/fonts/opentype/public/lm/lmromancaps10-oblique.otf'
p2156
aS'/usr/share/fonts/truetype/droid/DroidSansJapanese.ttf'
p2157
aS'/usr/share/fonts/truetype/liberation/LiberationSansNarrow-Italic.ttf'
p2158
aS'/usr/share/fonts/truetype/lyx/cmr10.ttf'
p2159
aS'/usr/share/fonts/truetype/ttf-indic-fonts-core/Malige-b.ttf'
p2160
aS'/usr/share/texmf/fonts/opentype/public/lm/lmroman6-regular.otf'
p2161
aS'/usr/share/fonts/truetype/dejavu/DejaVuSerifCondensed-BoldItalic.ttf'
p2162
aS'/usr/share/fonts/truetype/msttcorefonts/verdanai.ttf'
p2163
aS'/usr/share/fonts/truetype/ttf-dejavu/DejaVuSansCondensed.ttf'
p2164
aS'/usr/share/fonts/opentype/stix/STIXIntegralsUpSm-Regular.otf'
p2165
aS'/usr/share/fonts/truetype/ttf-liberation/LiberationMono-Bold.ttf'
p2166
aS'/usr/share/fonts/opentype/mathjax/MathJax_SansSerif-Regular.otf'
p2167
aS'/usr/share/texmf/fonts/opentype/public/lm/lmsans9-regular.otf'
p2168
aS'/usr/share/texmf/fonts/opentype/public/lm/lmmonolt10-oblique.otf'
p2169
aS'/usr/share/fonts/truetype/droid/DroidSerif-Bold.ttf'
p2170
aS'/usr/share/fonts/truetype/ttf-indic-fonts-core/Meera_04.ttf'
p2171
aS'/usr/share/fonts/truetype/tlwg/Umpush-LightOblique.ttf'
p2172
aS'/usr/share/fonts/truetype/tlwg/TlwgTypo.ttf'
p2173
aS'/usr/share/fonts/truetype/ttf-liberation/LiberationMono-Italic.ttf'
p2174
aS'/usr/share/fonts/truetype/gentium/GenR102.ttf'
p2175
aS'/usr/share/fonts/truetype/ttf-dejavu/DejaVuSerif.ttf'
p2176
aS'/usr/share/fonts/truetype/freefont/FreeSansOblique.ttf'
p2177
aS'/usr/share/texmf/fonts/opentype/public/lm/lmromandunh10-oblique.otf'
p2178
aS'/usr/share/fonts/truetype/liberation/LiberationSans-Bold.ttf'
p2179
aS'/usr/share/fonts/truetype/lyx/rsfs10.ttf'
p2180
aS'/usr/share/fonts/truetype/liberation/LiberationMono-Regular.ttf'
p2181
aS'/usr/share/fonts/opentype/mathjax/MathJax_Typewriter-Regular.otf'
p2182
aS'/usr/share/fonts/opentype/stix/STIXVariants-Regular.otf'
p2183
aS'/usr/share/texmf/fonts/opentype/public/lm/lmsans10-regular.otf'
p2184
aS'/usr/share/fonts/truetype/msttcorefonts/Times_New_Roman_Bold_Italic.ttf'
p2185
aS'/usr/share/fonts/truetype/tlwg/Garuda.ttf'
p2186
aS'/usr/share/fonts/truetype/kacst/mry_KacstQurn.ttf'
p2187
aS'/usr/share/texmf/fonts/opentype/public/lm/lmsans10-oblique.otf'
p2188
aS'/usr/share/fonts/truetype/tibetan-machine/TibetanMachineUni.ttf'
p2189
aS'/usr/share/texmf/fonts/opentype/public/lm/lmsansquot8-regular.otf'
p2190
aS'/usr/share/fonts/truetype/kacst-one/KacstOne-Bold.ttf'
p2191
aS'/usr/share/fonts/opentype/linux-libertine/LinLibertine_DR.otf'
p2192
aS'/usr/share/fonts/truetype/unfonts-core/UnGraphic.ttf'
p2193
aS'/usr/share/texmf/fonts/opentype/public/lm/lmsans8-regular.otf'
p2194
aS'/usr/share/fonts/truetype/kacst/KacstDigital.ttf'
p2195
aS'/usr/share/fonts/truetype/lyx/eufm10.ttf'
p2196
aS'/usr/share/fonts/truetype/ttf-dejavu/DejaVuSerif-BoldItalic.ttf'
p2197
aS'/usr/share/fonts/truetype/lyx/esint10.ttf'
p2198
aS'/usr/share/texmf/fonts/opentype/public/lm/lmroman17-regular.otf'
p2199
aS'/usr/share/fonts/opentype/stix/STIXIntegralsUpD-Regular.otf'
p2200
aS'/usr/share/fonts/truetype/ttf-liberation/LiberationSansNarrow-BoldItalic.ttf'
p2201
aS'/usr/share/fonts/opentype/mathjax/MathJax_SansSerif-Italic.otf'
p2202
aS'/usr/share/fonts/truetype/ttf-liberation/LiberationSerif-Italic.ttf'
p2203
aS'/usr/share/fonts/truetype/msttcorefonts/comicbd.ttf'
p2204
aS'/usr/share/fonts/truetype/msttcorefonts/Verdana_Italic.ttf'
p2205
aS'/usr/share/texmf/fonts/opentype/public/lm/lmromandemi10-oblique.otf'
p2206
aS'/usr/share/fonts/truetype/ttf-dejavu/DejaVuSerifCondensed-BoldItalic.ttf'
p2207
aS'/usr/share/fonts/truetype/liberation/LiberationSansNarrow-Bold.ttf'
p2208
aS'/usr/share/fonts/truetype/msttcorefonts/verdana.ttf'
p2209
aS'/usr/share/fonts/truetype/droid/DroidSansGeorgian.ttf'
p2210
aS'/usr/share/fonts/truetype/ttf-dejavu/DejaVuSans-ExtraLight.ttf'
p2211
aS'/usr/share/fonts/truetype/fonts-japanese-mincho.ttf'
p2212
aS'/usr/share/fonts/truetype/msttcorefonts/Comic_Sans_MS_Bold.ttf'
p2213
aS'/usr/share/texmf/fonts/opentype/public/lm/lmmonolt10-regular.otf'
p2214
aS'/usr/share/fonts/opentype/linux-libertine/LinLibertine_RI.otf'
p2215
aS'/usr/share/fonts/opentype/linux-libertine/LinBiolinum_R.otf'
p2216
aS'/usr/share/texmf/fonts/opentype/public/lm/lmmonoproplt10-oblique.otf'
p2217
aS'/usr/share/texmf/fonts/opentype/public/lm/lmroman5-bold.otf'
p2218
aS'/usr/share/fonts/truetype/padauk/Padauk-bold.ttf'
p2219
aS'/usr/share/fonts/truetype/msttcorefonts/couri.ttf'
p2220
aS'/usr/share/fonts/truetype/dejavu/DejaVuSansMono.ttf'
p2221
aS'/usr/share/fonts/truetype/ttf-indic-fonts-core/Rekha.ttf'
p2222
aS'/usr/share/fonts/truetype/tlwg/Loma-Oblique.ttf'
p2223
aS'/usr/share/fonts/truetype/tlwg/Garuda-BoldOblique.ttf'
p2224
aS'/usr/share/fonts/opentype/mathjax/MathJax_WinIE6-Regular.otf'
p2225
aS'/usr/share/fonts/truetype/msttcorefonts/ariblk.ttf'
p2226
aS'/usr/share/fonts/truetype/msttcorefonts/Trebuchet_MS_Bold_Italic.ttf'
p2227
aS'/usr/share/fonts/opentype/mathjax/MathJax_Math-Italic.otf'
p2228
aS'/usr/share/texmf/fonts/opentype/public/lm/lmmonolt10-bold.otf'
p2229
aS'/usr/share/fonts/truetype/gentium/GenAR102.ttf'
p2230
aS'/usr/share/fonts/truetype/msttcorefonts/Verdana_Bold.ttf'
p2231
aS'/usr/share/fonts/truetype/tlwg/Umpush-BoldOblique.ttf'
p2232
aS'/usr/share/fonts/truetype/unfonts-core/UnPilgi.ttf'
p2233
aS'/usr/share/fonts/truetype/droid/DroidSerif-Italic.ttf'
p2234
aS'/usr/share/fonts/truetype/tlwg/TlwgTypo-Bold.ttf'
p2235
aS'/usr/share/fonts/truetype/msttcorefonts/Arial_Italic.ttf'
p2236
aS'/usr/share/fonts/truetype/liberation/LiberationSerif-Italic.ttf'
p2237
aS'/usr/share/fonts/truetype/tlwg/TlwgTypewriter-Bold.ttf'
p2238
aS'/usr/share/fonts/truetype/tlwg/Waree-BoldOblique.ttf'
p2239
aS'/usr/share/fonts/opentype/stix/STIXNonUnicode-Bold.otf'
p2240
aS'/usr/share/fonts/truetype/tlwg/Waree-Bold.ttf'
p2241
aS'/usr/share/fonts/truetype/freefont/FreeSerifBoldItalic.ttf'
p2242
aS'/usr/share/fonts/truetype/msttcorefonts/comic.ttf'
p2243
aS'/usr/share/texmf/fonts/opentype/public/lm/lmmonocaps10-oblique.otf'
p2244
aS'/usr/share/fonts/opentype/stix/STIXSizeThreeSym-Bold.otf'
p2245
aS'/usr/share/fonts/truetype/ttf-liberation/LiberationSansNarrow-Bold.ttf'
p2246
aS'/usr/share/fonts/truetype/tlwg/TlwgTypo-Oblique.ttf'
p2247
aS'/usr/share/fonts/truetype/droid/DroidSans-Bold.ttf'
p2248
aS'/usr/share/texmf/fonts/opentype/public/lm/lmmonoproplt10-bold.otf'
p2249
aS'/usr/share/fonts/truetype/msttcorefonts/arialbd.ttf'
p2250
aS'/usr/share/fonts/truetype/ubuntu-font-family/Ubuntu-MI.ttf'
p2251
aS'/usr/share/fonts/truetype/ttf-indic-fonts-core/Kedage-n.ttf'
p2252
aS'/usr/share/fonts/truetype/msttcorefonts/arial.ttf'
p2253
aS'/usr/share/texmf/fonts/opentype/public/lm/lmromanunsl10-regular.otf'
p2254
aS'/usr/share/texmf/fonts/opentype/public/lm/lmsans9-oblique.otf'
p2255
aS'/usr/share/fonts/truetype/ttf-liberation/LiberationSans-Bold.ttf'
p2256
aS'/usr/share/fonts/truetype/ttf-dejavu/DejaVuSansMono-Oblique.ttf'
p2257
aS'/usr/share/fonts/truetype/ttf-liberation/LiberationMono-Regular.ttf'
p2258
aS'/usr/share/fonts/truetype/tlwg/TlwgMono-BoldOblique.ttf'
p2259
aS'/usr/share/fonts/opentype/linux-libertine/LinBiolinum_RI.otf'
p2260
aS'/usr/share/fonts/truetype/kacst/KacstQurn.ttf'
p2261
aS'/usr/share/fonts/truetype/padauk/Padauk-book.ttf'
p2262
aS'/usr/share/fonts/truetype/msttcorefonts/Arial_Bold_Italic.ttf'
p2263
aS'/usr/share/fonts/truetype/ttf-liberation/LiberationMono-BoldItalic.ttf'
p2264
aS'/usr/share/fonts/truetype/kacst/KacstOffice.ttf'
p2265
aS'/usr/share/fonts/truetype/abyssinica/AbyssinicaSIL-R.ttf'
p2266
aS'/usr/share/fonts/opentype/stix/STIXIntegralsUpD-Bold.otf'
p2267
aS'/usr/share/fonts/truetype/tlwg/Loma.ttf'
p2268
aS'/usr/share/fonts/opentype/mathjax/MathJax_Caligraphic-Bold.otf'
p2269
aS'/usr/share/texmf/fonts/opentype/public/lm/lmsans17-oblique.otf'
p2270
aS'/usr/share/fonts/truetype/tlwg/TlwgTypo-BoldOblique.ttf'
p2271
aS'/usr/share/fonts/truetype/kacst/KacstTitleL.ttf'
p2272
aS'/usr/share/fonts/opentype/mathjax/MathJax_Math-BoldItalic.otf'
p2273
aS'/usr/share/fonts/truetype/msttcorefonts/Times_New_Roman_Bold.ttf'
p2274
aS'/usr/share/fonts/truetype/droid/DroidSansHebrew-Regular.ttf'
p2275
asS'_FontManager__default_weight'
p2276
g13
sS'_version'
p2277
I101
sS'ttf_lookup_cache'
p2278
(dp2279
sS'default_size'
p2280
NsS'defaultFont'
p2281
(dp2282
g1788
S'/usr/share/matplotlib/mpl-data/fonts/pdfcorefonts/Symbol.afm'
p2283
sg1790
g1794
ssS'afmfiles'
p2284
(lp2285
g2283
aS'/usr/share/matplotlib/mpl-data/fonts/afm/pzcmi8a.afm'
p2286
aS'/usr/share/matplotlib/mpl-data/fonts/afm/phvl8a.afm'
p2287
aS'/usr/share/matplotlib/mpl-data/fonts/afm/putbi8a.afm'
p2288
aS'/usr/share/matplotlib/mpl-data/fonts/pdfcorefonts/Helvetica-BoldOblique.afm'
p2289
aS'/usr/share/matplotlib/mpl-data/fonts/afm/phvro8an.afm'
p2290
aS'/usr/share/matplotlib/mpl-data/fonts/afm/pbkd8a.afm'
p2291
aS'/usr/share/matplotlib/mpl-data/fonts/afm/pncri8a.afm'
p2292
aS'/usr/share/matplotlib/mpl-data/fonts/pdfcorefonts/Helvetica-Bold.afm'
p2293
aS'/usr/share/matplotlib/mpl-data/fonts/pdfcorefonts/Times-BoldItalic.afm'
p2294
aS'/usr/share/matplotlib/mpl-data/fonts/afm/pcrb8a.afm'
p2295
aS'/usr/share/matplotlib/mpl-data/fonts/afm/pagdo8a.afm'
p2296
aS'/usr/share/matplotlib/mpl-data/fonts/afm/pcrr8a.afm'
p2297
aS'/usr/share/matplotlib/mpl-data/fonts/afm/pncb8a.afm'
p2298
aS'/usr/share/matplotlib/mpl-data/fonts/pdfcorefonts/Courier-Bold.afm'
p2299
aS'/usr/share/matplotlib/mpl-data/fonts/afm/pncbi8a.afm'
p2300
aS'/usr/share/matplotlib/mpl-data/fonts/afm/phvr8a.afm'
p2301
aS'/usr/share/matplotlib/mpl-data/fonts/afm/cmtt10.afm'
p2302
aS'/usr/share/matplotlib/mpl-data/fonts/afm/phvro8a.afm'
p2303
aS'/usr/share/matplotlib/mpl-data/fonts/afm/phvr8an.afm'
p2304
aS'/usr/share/matplotlib/mpl-data/fonts/afm/pcrbo8a.afm'
p2305
aS'/usr/share/matplotlib/mpl-data/fonts/afm/ptmr8a.afm'
p2306
aS'/usr/share/matplotlib/mpl-data/fonts/afm/pplbi8a.afm'
p2307
aS'/usr/share/matplotlib/mpl-data/fonts/afm/cmsy10.afm'
p2308
aS'/usr/share/matplotlib/mpl-data/fonts/afm/pagk8a.afm'
p2309
aS'/usr/share/matplotlib/mpl-data/fonts/pdfcorefonts/Courier-BoldOblique.afm'
p2310
aS'/usr/share/matplotlib/mpl-data/fonts/afm/putb8a.afm'
p2311
aS'/usr/share/matplotlib/mpl-data/fonts/afm/cmmi10.afm'
p2312
aS'/usr/share/matplotlib/mpl-data/fonts/afm/pagko8a.afm'
p2313
aS'/usr/share/matplotlib/mpl-data/fonts/afm/pbkdi8a.afm'
p2314
aS'/usr/share/matplotlib/mpl-data/fonts/afm/phvbo8a.afm'
p2315
aS'/usr/share/matplotlib/mpl-data/fonts/afm/cmr10.afm'
p2316
aS'/usr/share/matplotlib/mpl-data/fonts/pdfcorefonts/Times-Bold.afm'
p2317
aS'/usr/share/matplotlib/mpl-data/fonts/afm/psyr.afm'
p2318
aS'/usr/share/matplotlib/mpl-data/fonts/afm/phvlo8a.afm'
p2319
aS'/usr/share/matplotlib/mpl-data/fonts/afm/phvb8a.afm'
p2320
aS'/usr/share/matplotlib/mpl-data/fonts/afm/pplb8a.afm'
p2321
aS'/usr/share/matplotlib/mpl-data/fonts/afm/pzdr.afm'
p2322
aS'/usr/share/matplotlib/mpl-data/fonts/afm/ptmri8a.afm'
p2323
aS'/usr/share/matplotlib/mpl-data/fonts/afm/pplr8a.afm'
p2324
aS'/usr/share/matplotlib/mpl-data/fonts/afm/pbkl8a.afm'
p2325
aS'/usr/share/matplotlib/mpl-data/fonts/afm/pcrro8a.afm'
p2326
aS'/usr/share/matplotlib/mpl-data/fonts/pdfcorefonts/ZapfDingbats.afm'
p2327
aS'/usr/share/matplotlib/mpl-data/fonts/afm/ptmb8a.afm'
p2328
aS'/usr/share/matplotlib/mpl-data/fonts/pdfcorefonts/Helvetica.afm'
p2329
aS'/usr/share/matplotlib/mpl-data/fonts/afm/pplri8a.afm'
p2330
aS'/usr/share/matplotlib/mpl-data/fonts/afm/ptmbi8a.afm'
p2331
aS'/usr/share/matplotlib/mpl-data/fonts/afm/pbkli8a.afm'
p2332
aS'/usr/share/matplotlib/mpl-data/fonts/pdfcorefonts/Courier-Oblique.afm'
p2333
aS'/usr/share/matplotlib/mpl-data/fonts/pdfcorefonts/Courier.afm'
p2334
aS'/usr/share/matplotlib/mpl-data/fonts/afm/putr8a.afm'
p2335
aS'/usr/share/matplotlib/mpl-data/fonts/afm/pagd8a.afm'
p2336
aS'/usr/share/matplotlib/mpl-data/fonts/afm/pncr8a.afm'
p2337
aS'/usr/share/matplotlib/mpl-data/fonts/afm/phvbo8an.afm'
p2338
aS'/usr/share/matplotlib/mpl-data/fonts/pdfcorefonts/Times-Italic.afm'
p2339
aS'/usr/share/matplotlib/mpl-data/fonts/afm/cmex10.afm'
p2340
aS'/usr/share/matplotlib/mpl-data/fonts/pdfcorefonts/Times-Roman.afm'
p2341
aS'/usr/share/matplotlib/mpl-data/fonts/afm/putri8a.afm'
p2342
aS'/usr/share/matplotlib/mpl-data/fonts/pdfcorefonts/Helvetica-Oblique.afm'
p2343
aS'/usr/share/matplotlib/mpl-data/fonts/afm/phvb8an.afm'
p2344
aS'/usr/share/fonts/type1/gsfonts/b018015l.afm'
p2345
aS'/usr/share/fonts/X11/Type1/lmtt10.afm'
p2346
aS'/usr/share/fonts/type1/gsfonts/n019003l.afm'
p2347
aS'/usr/share/fonts/type1/gsfonts/c059016l.afm'
p2348
aS'/usr/share/fonts/X11/Type1/lmbx10.afm'
p2349
aS'/usr/share/fonts/type1/gsfonts/a010033l.afm'
p2350
aS'/usr/share/fonts/X11/Type1/lmssdo10.afm'
p2351
aS'/usr/share/fonts/X11/Type1/lmssqbx8.afm'
p2352
aS'/usr/share/fonts/X11/Type1/lmssqo8.afm'
p2353
aS'/usr/share/fonts/type1/gsfonts/n019064l.afm'
p2354
aS'/usr/share/fonts/X11/Type1/lmb10.afm'
p2355
aS'/usr/share/fonts/type1/gsfonts/n022023l.afm'
p2356
aS'/usr/share/fonts/type1/gsfonts/p052024l.afm'
p2357
aS'/usr/share/fonts/X11/Type1/c0583bt_.afm'
p2358
aS'/usr/share/fonts/X11/Type1/lmvtko10.afm'
p2359
aS'/usr/share/fonts/X11/Type1/lmbxo10.afm'
p2360
aS'/usr/share/fonts/X11/Type1/c0648bt_.afm'
p2361
aS'/usr/share/fonts/type1/gsfonts/z003034l.afm'
p2362
aS'/usr/share/fonts/X11/Type1/lmtcsc10.afm'
p2363
aS'/usr/share/fonts/X11/Type1/lmcsco10.afm'
p2364
aS'/usr/share/fonts/type1/mathml/Symbol.afm'
p2365
aS'/usr/share/fonts/X11/Type1/lmbxi10.afm'
p2366
aS'/usr/share/fonts/type1/gsfonts/n022024l.afm'
p2367
aS'/usr/share/fonts/type1/gsfonts/a010035l.afm'
p2368
aS'/usr/share/fonts/type1/gsfonts/n019004l.afm'
p2369
aS'/usr/share/fonts/X11/Type1/c0633bt_.afm'
p2370
aS'/usr/share/fonts/X11/Type1/lmvtto10.afm'
p2371
aS'/usr/share/fonts/X11/Type1/lmdunh10.afm'
p2372
aS'/usr/share/fonts/type1/gsfonts/c059033l.afm'
p2373
aS'/usr/share/fonts/type1/gsfonts/d050000l.afm'
p2374
aS'/usr/share/fonts/X11/Type1/lmss10.afm'
p2375
aS'/usr/share/fonts/type1/gsfonts/b018012l.afm'
p2376
aS'/usr/share/fonts/X11/Type1/lmvtt10.afm'
p2377
aS'/usr/share/fonts/type1/gsfonts/b018032l.afm'
p2378
aS'/usr/share/fonts/X11/Type1/lmssbo10.afm'
p2379
aS'/usr/share/fonts/type1/gsfonts/n019043l.afm'
p2380
aS'/usr/share/fonts/type1/gsfonts/b018035l.afm'
p2381
aS'/usr/share/fonts/X11/Type1/lmduno10.afm'
p2382
aS'/usr/share/fonts/type1/gsfonts/n021024l.afm'
p2383
aS'/usr/share/fonts/X11/Type1/lmtlc10.afm'
p2384
aS'/usr/share/fonts/X11/Type1/c0582bt_.afm'
p2385
aS'/usr/share/fonts/type1/gsfonts/p052004l.afm'
p2386
aS'/usr/share/fonts/type1/gsfonts/c059036l.afm'
p2387
aS'/usr/share/fonts/type1/gsfonts/n022004l.afm'
p2388
aS'/usr/share/fonts/X11/Type1/lmssq8.afm'
p2389
aS'/usr/share/fonts/X11/Type1/lmvtl10.afm'
p2390
aS'/usr/share/fonts/type1/gsfonts/a010015l.afm'
p2391
aS'/usr/share/fonts/X11/Type1/lmro10.afm'
p2392
aS'/usr/share/fonts/type1/gsfonts/n021003l.afm'
p2393
aS'/usr/share/fonts/X11/Type1/lmcsc10.afm'
p2394
aS'/usr/share/fonts/X11/Type1/lmsso10.afm'
p2395
aS'/usr/share/fonts/type1/gsfonts/n019023l.afm'
p2396
aS'/usr/share/fonts/X11/Type1/lmtko10.afm'
p2397
aS'/usr/share/fonts/type1/gsfonts/s050000l.afm'
p2398
aS'/usr/share/fonts/type1/gsfonts/n019063l.afm'
p2399
aS'/usr/share/fonts/X11/Type1/c0611bt_.afm'
p2400
aS'/usr/share/fonts/X11/Type1/lmbo10.afm'
p2401
aS'/usr/share/fonts/type1/gsfonts/p052023l.afm'
p2402
aS'/usr/share/fonts/X11/Type1/lmri10.afm'
p2403
aS'/usr/share/fonts/X11/Type1/Symbol.afm'
p2404
aS'/usr/share/fonts/X11/Type1/lmssqbo8.afm'
p2405
aS'/usr/share/fonts/type1/gsfonts/p052003l.afm'
p2406
aS'/usr/share/fonts/X11/Type1/lmr10.afm'
p2407
aS'/usr/share/fonts/X11/Type1/c0649bt_.afm'
p2408
aS'/usr/share/fonts/type1/gsfonts/a010013l.afm'
p2409
aS'/usr/share/fonts/X11/Type1/lmtk10.afm'
p2410
aS'/usr/share/fonts/X11/Type1/lmssdc10.afm'
p2411
aS'/usr/share/fonts/X11/Type1/lmssbx10.afm'
p2412
aS'/usr/share/fonts/type1/gsfonts/n019024l.afm'
p2413
aS'/usr/share/fonts/X11/Type1/lmtl10.afm'
p2414
aS'/usr/share/fonts/type1/gsfonts/n022003l.afm'
p2415
aS'/usr/share/fonts/X11/Type1/lmtto10.afm'
p2416
aS'/usr/share/fonts/type1/gsfonts/n019044l.afm'
p2417
aS'/usr/share/fonts/X11/Type1/lmvtlo10.afm'
p2418
aS'/usr/share/fonts/type1/gsfonts/c059013l.afm'
p2419
aS'/usr/share/fonts/type1/gsfonts/n021023l.afm'
p2420
aS'/usr/share/fonts/type1/gsfonts/n021004l.afm'
p2421
aS'/usr/share/fonts/X11/Type1/lmtlo10.afm'
p2422
aS'/usr/share/fonts/X11/Type1/lmtcso10.afm'
p2423
aS'/usr/share/fonts/X11/Type1/lmvtk10.afm'
p2424
aS'/usr/share/fonts/X11/Type1/lmtti10.afm'
p2425
aS'/usr/share/fonts/X11/Type1/c0419bt_.afm'
p2426
aS'/usr/share/fonts/X11/Type1/lmtlco10.afm'
p2427
aS'/usr/share/fonts/X11/Type1/c0632bt_.afm'
p2428
aS'/usr/share/fonts/X11/Type1/lmu10.afm'
p2429
asS'afmlist'
p2430
(lp2431
g7
(g8
g9
NtRp2432
(dp2433
g12
g13
sg14
S'Symbol'
p2434
sg16
I500
sg17
g13
sg18
g13
sg19
g2283
sg21
g22
sbag7
(g8
g9
NtRp2435
(dp2436
g12
g29
sg14
S'ITC Zapf Chancery'
p2437
sg16
I500
sg17
g13
sg18
g13
sg19
g2286
sg21
g22
sbag7
(g8
g9
NtRp2438
(dp2439
g12
g13
sg14
S'Helvetica'
p2440
sg16
I200
sg17
g13
sg18
g13
sg19
g2287
sg21
g22
sbag7
(g8
g9
NtRp2441
(dp2442
g12
g29
sg14
S'Utopia'
p2443
sg16
I700
sg17
g13
sg18
g13
sg19
g2288
sg21
g22
sbag7
(g8
g9
NtRp2444
(dp2445
g12
g29
sg14
S'Helvetica'
p2446
sg16
I700
sg17
g13
sg18
g13
sg19
g2289
sg21
g22
sbag7
(g8
g9
NtRp2447
(dp2448
g12
g29
sg14
S'Helvetica'
p2449
sg16
I500
sg17
g188
sg18
g13
sg19
g2290
sg21
g22
sbag7
(g8
g9
NtRp2450
(dp2451
g12
g13
sg14
S'ITC Bookman'
p2452
sg16
I600
sg17
g13
sg18
g13
sg19
g2291
sg21
g22
sbag7
(g8
g9
NtRp2453
(dp2454
g12
g29
sg14
S'New Century Schoolbook'
p2455
sg16
I500
sg17
g13
sg18
g13
sg19
g2292
sg21
g22
sbag7
(g8
g9
NtRp2456
(dp2457
g12
g13
sg14
S'Helvetica'
p2458
sg16
I700
sg17
g13
sg18
g13
sg19
g2293
sg21
g22
sbag7
(g8
g9
NtRp2459
(dp2460
g12
g29
sg14
S'Times'
p2461
sg16
I700
sg17
g13
sg18
g13
sg19
g2294
sg21
g22
sbag7
(g8
g9
NtRp2462
(dp2463
g12
g13
sg14
S'Courier'
p2464
sg16
I700
sg17
g13
sg18
g13
sg19
g2295
sg21
g22
sbag7
(g8
g9
NtRp2465
(dp2466
g12
g29
sg14
S'ITC Avant Garde Gothic'
p2467
sg16
I600
sg17
g13
sg18
g13
sg19
g2296
sg21
g22
sbag7
(g8
g9
NtRp2468
(dp2469
g12
g13
sg14
S'Courier'
p2470
sg16
I500
sg17
g13
sg18
g13
sg19
g2297
sg21
g22
sbag7
(g8
g9
NtRp2471
(dp2472
g12
g13
sg14
S'New Century Schoolbook'
p2473
sg16
I700
sg17
g13
sg18
g13
sg19
g2298
sg21
g22
sbag7
(g8
g9
NtRp2474
(dp2475
g12
g13
sg14
S'Courier'
p2476
sg16
I700
sg17
g13
sg18
g13
sg19
g2299
sg21
g22
sbag7
(g8
g9
NtRp2477
(dp2478
g12
g29
sg14
S'New Century Schoolbook'
p2479
sg16
I700
sg17
g13
sg18
g13
sg19
g2300
sg21
g22
sbag7
(g8
g9
NtRp2480
(dp2481
g12
g13
sg14
S'Helvetica'
p2482
sg16
I500
sg17
g13
sg18
g13
sg19
g2301
sg21
g22
sbag7
(g8
g9
NtRp2483
(dp2484
g12
g13
sg14
S'Computer Modern'
p2485
sg16
I500
sg17
g13
sg18
g13
sg19
g2302
sg21
g22
sbag7
(g8
g9
NtRp2486
(dp2487
g12
g29
sg14
S'Helvetica'
p2488
sg16
I500
sg17
g13
sg18
g13
sg19
g2303
sg21
g22
sbag7
(g8
g9
NtRp2489
(dp2490
g12
g13
sg14
S'Helvetica'
p2491
sg16
I500
sg17
g188
sg18
g13
sg19
g2304
sg21
g22
sbag7
(g8
g9
NtRp2492
(dp2493
g12
g29
sg14
S'Courier'
p2494
sg16
I700
sg17
g13
sg18
g13
sg19
g2305
sg21
g22
sbag7
(g8
g9
NtRp2495
(dp2496
g12
g13
sg14
S'Times'
p2497
sg16
I500
sg17
g13
sg18
g13
sg19
g2306
sg21
g22
sbag7
(g8
g9
NtRp2498
(dp2499
g12
g29
sg14
S'Palatino'
p2500
sg16
I700
sg17
g13
sg18
g13
sg19
g2307
sg21
g22
sbag7
(g8
g9
NtRp2501
(dp2502
g12
g29
sg14
S'Computer Modern'
p2503
sg16
I500
sg17
g13
sg18
g13
sg19
g2308
sg21
g22
sbag7
(g8
g9
NtRp2504
(dp2505
g12
g13
sg14
S'ITC Avant Garde Gothic'
p2506
sg16
I400
sg17
g13
sg18
g13
sg19
g2309
sg21
g22
sbag7
(g8
g9
NtRp2507
(dp2508
g12
g29
sg14
S'Courier'
p2509
sg16
I700
sg17
g13
sg18
g13
sg19
g2310
sg21
g22
sbag7
(g8
g9
NtRp2510
(dp2511
g12
g13
sg14
S'Utopia'
p2512
sg16
I700
sg17
g13
sg18
g13
sg19
g2311
sg21
g22
sbag7
(g8
g9
NtRp2513
(dp2514
g12
g29
sg14
S'Computer Modern'
p2515
sg16
I500
sg17
g13
sg18
g13
sg19
g2312
sg21
g22
sbag7
(g8
g9
NtRp2516
(dp2517
g12
g29
sg14
S'ITC Avant Garde Gothic'
p2518
sg16
I400
sg17
g13
sg18
g13
sg19
g2313
sg21
g22
sbag7
(g8
g9
NtRp2519
(dp2520
g12
g29
sg14
S'ITC Bookman'
p2521
sg16
I600
sg17
g13
sg18
g13
sg19
g2314
sg21
g22
sbag7
(g8
g9
NtRp2522
(dp2523
g12
g29
sg14
S'Helvetica'
p2524
sg16
I700
sg17
g13
sg18
g13
sg19
g2315
sg21
g22
sbag7
(g8
g9
NtRp2525
(dp2526
g12
g13
sg14
S'Computer Modern'
p2527
sg16
I500
sg17
g13
sg18
g13
sg19
g2316
sg21
g22
sbag7
(g8
g9
NtRp2528
(dp2529
g12
g13
sg14
S'Times'
p2530
sg16
I700
sg17
g13
sg18
g13
sg19
g2317
sg21
g22
sbag7
(g8
g9
NtRp2531
(dp2532
g12
g13
sg14
S'Symbol'
p2533
sg16
I500
sg17
g13
sg18
g13
sg19
g2318
sg21
g22
sbag7
(g8
g9
NtRp2534
(dp2535
g12
g29
sg14
S'Helvetica'
p2536
sg16
I200
sg17
g13
sg18
g13
sg19
g2319
sg21
g22
sbag7
(g8
g9
NtRp2537
(dp2538
g12
g13
sg14
S'Helvetica'
p2539
sg16
I700
sg17
g13
sg18
g13
sg19
g2320
sg21
g22
sbag7
(g8
g9
NtRp2540
(dp2541
g12
g13
sg14
S'Palatino'
p2542
sg16
I700
sg17
g13
sg18
g13
sg19
g2321
sg21
g22
sbag7
(g8
g9
NtRp2543
(dp2544
g12
g13
sg14
S'ITC Zapf Dingbats'
p2545
sg16
I500
sg17
g13
sg18
g13
sg19
g2322
sg21
g22
sbag7
(g8
g9
NtRp2546
(dp2547
g12
g29
sg14
S'Times'
p2548
sg16
I500
sg17
g13
sg18
g13
sg19
g2323
sg21
g22
sbag7
(g8
g9
NtRp2549
(dp2550
g12
g13
sg14
S'Palatino'
p2551
sg16
I500
sg17
g13
sg18
g13
sg19
g2324
sg21
g22
sbag7
(g8
g9
NtRp2552
(dp2553
g12
g13
sg14
S'ITC Bookman'
p2554
sg16
I200
sg17
g13
sg18
g13
sg19
g2325
sg21
g22
sbag7
(g8
g9
NtRp2555
(dp2556
g12
g29
sg14
S'Courier'
p2557
sg16
I500
sg17
g13
sg18
g13
sg19
g2326
sg21
g22
sbag7
(g8
g9
NtRp2558
(dp2559
g12
g13
sg14
S'ZapfDingbats'
p2560
sg16
I500
sg17
g13
sg18
g13
sg19
g2327
sg21
g22
sbag7
(g8
g9
NtRp2561
(dp2562
g12
g13
sg14
S'Times'
p2563
sg16
I700
sg17
g13
sg18
g13
sg19
g2328
sg21
g22
sbag7
(g8
g9
NtRp2564
(dp2565
g12
g13
sg14
S'Helvetica'
p2566
sg16
I500
sg17
g13
sg18
g13
sg19
g2329
sg21
g22
sbag7
(g8
g9
NtRp2567
(dp2568
g12
g29
sg14
S'Palatino'
p2569
sg16
I500
sg17
g13
sg18
g13
sg19
g2330
sg21
g22
sbag7
(g8
g9
NtRp2570
(dp2571
g12
g29
sg14
S'Times'
p2572
sg16
I700
sg17
g13
sg18
g13
sg19
g2331
sg21
g22
sbag7
(g8
g9
NtRp2573
(dp2574
g12
g29
sg14
S'ITC Bookman'
p2575
sg16
I200
sg17
g13
sg18
g13
sg19
g2332
sg21
g22
sbag7
(g8
g9
NtRp2576
(dp2577
g12
g29
sg14
S'Courier'
p2578
sg16
I500
sg17
g13
sg18
g13
sg19
g2333
sg21
g22
sbag7
(g8
g9
NtRp2579
(dp2580
g12
g13
sg14
S'Courier'
p2581
sg16
I500
sg17
g13
sg18
g13
sg19
g2334
sg21
g22
sbag7
(g8
g9
NtRp2582
(dp2583
g12
g13
sg14
S'Utopia'
p2584
sg16
I400
sg17
g13
sg18
g13
sg19
g2335
sg21
g22
sbag7
(g8
g9
NtRp2585
(dp2586
g12
g13
sg14
S'ITC Avant Garde Gothic'
p2587
sg16
I600
sg17
g13
sg18
g13
sg19
g2336
sg21
g22
sbag7
(g8
g9
NtRp2588
(dp2589
g12
g13
sg14
S'New Century Schoolbook'
p2590
sg16
I500
sg17
g13
sg18
g13
sg19
g2337
sg21
g22
sbag7
(g8
g9
NtRp2591
(dp2592
g12
g29
sg14
S'Helvetica'
p2593
sg16
I700
sg17
g188
sg18
g13
sg19
g2338
sg21
g22
sbag7
(g8
g9
NtRp2594
(dp2595
g12
g29
sg14
S'Times'
p2596
sg16
I500
sg17
g13
sg18
g13
sg19
g2339
sg21
g22
sbag7
(g8
g9
NtRp2597
(dp2598
g12
g13
sg14
S'Computer Modern'
p2599
sg16
I500
sg17
g13
sg18
g13
sg19
g2340
sg21
g22
sbag7
(g8
g9
NtRp2600
(dp2601
g12
g13
sg14
S'Times'
p2602
sg16
I500
sg17
g13
sg18
g13
sg19
g2341
sg21
g22
sbag7
(g8
g9
NtRp2603
(dp2604
g12
g29
sg14
S'Utopia'
p2605
sg16
I400
sg17
g13
sg18
g13
sg19
g2342
sg21
g22
sbag7
(g8
g9
NtRp2606
(dp2607
g12
g29
sg14
S'Helvetica'
p2608
sg16
I500
sg17
g13
sg18
g13
sg19
g2343
sg21
g22
sbag7
(g8
g9
NtRp2609
(dp2610
g12
g13
sg14
S'Helvetica'
p2611
sg16
I700
sg17
g188
sg18
g13
sg19
g2344
sg21
g22
sbag7
(g8
g9
NtRp2612
(dp2613
g12
g13
sg14
S'URW Bookman L'
p2614
sg16
I700
sg17
g13
sg18
g13
sg19
g2345
sg21
g22
sbag7
(g8
g9
NtRp2615
(dp2616
g12
g13
sg14
S'LMMono10'
p2617
sg16
I400
sg17
g13
sg18
g13
sg19
g2346
sg21
g22
sbag7
(g8
g9
NtRp2618
(dp2619
g12
g13
sg14
S'Nimbus Sans L'
p2620
sg16
I400
sg17
g13
sg18
g13
sg19
g2347
sg21
g22
sbag7
(g8
g9
NtRp2621
(dp2622
g12
g13
sg14
S'Century Schoolbook L'
p2623
sg16
I700
sg17
g13
sg18
g13
sg19
g2348
sg21
g22
sbag7
(g8
g9
NtRp2624
(dp2625
g12
g13
sg14
S'LMRoman10'
p2626
sg16
I700
sg17
g13
sg18
g13
sg19
g2349
sg21
g22
sbag7
(g8
g9
NtRp2627
(dp2628
g12
g29
sg14
S'URW Gothic L'
p2629
sg16
I400
sg17
g13
sg18
g13
sg19
g2350
sg21
g22
sbag7
(g8
g9
NtRp2630
(dp2631
g12
g29
sg14
S'LMSansDemiCond10'
p2632
sg16
I600
sg17
g188
sg18
g13
sg19
g2351
sg21
g22
sbag7
(g8
g9
NtRp2633
(dp2634
g12
g13
sg14
S'LMSansQuot8'
p2635
sg16
I700
sg17
g13
sg18
g13
sg19
g2352
sg21
g22
sbag7
(g8
g9
NtRp2636
(dp2637
g12
g29
sg14
S'LMSansQuot8'
p2638
sg16
I400
sg17
g13
sg18
g13
sg19
g2353
sg21
g22
sbag7
(g8
g9
NtRp2639
(dp2640
g12
g29
sg14
S'Nimbus Sans L'
p2641
sg16
I700
sg17
g188
sg18
g13
sg19
g2354
sg21
g22
sbag7
(g8
g9
NtRp2642
(dp2643
g12
g13
sg14
S'LMRomanDemi10'
p2644
sg16
I600
sg17
g13
sg18
g13
sg19
g2355
sg21
g22
sbag7
(g8
g9
NtRp2645
(dp2646
g12
g29
sg14
S'Nimbus Mono L'
p2647
sg16
I400
sg17
g13
sg18
g13
sg19
g2356
sg21
g22
sbag7
(g8
g9
NtRp2648
(dp2649
g12
g29
sg14
S'URW Palladio L'
p2650
sg16
I700
sg17
g13
sg18
g13
sg19
g2357
sg21
g22
sbag7
(g8
g9
NtRp2651
(dp2652
g12
g13
sg14
S'Courier 10 Pitch'
p2653
sg16
I700
sg17
g13
sg18
g13
sg19
g2358
sg21
g22
sbag7
(g8
g9
NtRp2654
(dp2655
g12
g29
sg14
S'LMMonoPropLt10'
p2656
sg16
I700
sg17
g13
sg18
g13
sg19
g2359
sg21
g22
sbag7
(g8
g9
NtRp2657
(dp2658
g12
g29
sg14
S'LMRomanSlant10'
p2659
sg16
I700
sg17
g13
sg18
g13
sg19
g2360
sg21
g22
sbag7
(g8
g9
NtRp2660
(dp2661
g12
g13
sg14
S'Bitstream Charter'
p2662
sg16
I400
sg17
g13
sg18
g13
sg19
g2361
sg21
g22
sbag7
(g8
g9
NtRp2663
(dp2664
g12
g29
sg14
S'URW Chancery L'
p2665
sg16
I500
sg17
g13
sg18
g13
sg19
g2362
sg21
g22
sbag7
(g8
g9
NtRp2666
(dp2667
g12
g13
sg14
S'LMMonoCaps10'
p2668
sg16
I400
sg17
g13
sg18
g13
sg19
g2363
sg21
g22
sbag7
(g8
g9
NtRp2669
(dp2670
g12
g29
sg14
S'LMRomanCaps10'
p2671
sg16
I400
sg17
g13
sg18
g13
sg19
g2364
sg21
g22
sbag7
(g8
g9
NtRp2672
(dp2673
g12
g29
sg14
S'LMRoman10'
p2674
sg16
I700
sg17
g13
sg18
g13
sg19
g2366
sg21
g22
sbag7
(g8
g9
NtRp2675
(dp2676
g12
g29
sg14
S'Nimbus Mono L'
p2677
sg16
I700
sg17
g13
sg18
g13
sg19
g2367
sg21
g22
sbag7
(g8
g9
NtRp2678
(dp2679
g12
g29
sg14
S'URW Gothic L'
p2680
sg16
I600
sg17
g13
sg18
g13
sg19
g2368
sg21
g22
sbag7
(g8
g9
NtRp2681
(dp2682
g12
g13
sg14
S'Nimbus Sans L'
p2683
sg16
I700
sg17
g13
sg18
g13
sg19
g2369
sg21
g22
sbag7
(g8
g9
NtRp2684
(dp2685
g12
g29
sg14
S'Bitstream Charter'
p2686
sg16
I700
sg17
g13
sg18
g13
sg19
g2370
sg21
g22
sbag7
(g8
g9
NtRp2687
(dp2688
g12
g29
sg14
S'LMMonoProp10'
p2689
sg16
I400
sg17
g13
sg18
g13
sg19
g2371
sg21
g22
sbag7
(g8
g9
NtRp2690
(dp2691
g12
g13
sg14
S'LMRomanDunh10'
p2692
sg16
I400
sg17
g13
sg18
g13
sg19
g2372
sg21
g22
sbag7
(g8
g9
NtRp2693
(dp2694
g12
g29
sg14
S'Century Schoolbook L'
p2695
sg16
I400
sg17
g13
sg18
g13
sg19
g2373
sg21
g22
sbag7
(g8
g9
NtRp2696
(dp2697
g12
g13
sg14
S'Dingbats'
p2698
sg16
I400
sg17
g13
sg18
g13
sg19
g2374
sg21
g22
sbag7
(g8
g9
NtRp2699
(dp2700
g12
g13
sg14
S'LMSans10'
p2701
sg16
I400
sg17
g13
sg18
g13
sg19
g2375
sg21
g22
sbag7
(g8
g9
NtRp2702
(dp2703
g12
g13
sg14
S'URW Bookman L'
p2704
sg16
I400
sg17
g13
sg18
g13
sg19
g2376
sg21
g22
sbag7
(g8
g9
NtRp2705
(dp2706
g12
g13
sg14
S'LMMonoProp10'
p2707
sg16
I400
sg17
g13
sg18
g13
sg19
g2377
sg21
g22
sbag7
(g8
g9
NtRp2708
(dp2709
g12
g29
sg14
S'URW Bookman L'
p2710
sg16
I400
sg17
g13
sg18
g13
sg19
g2378
sg21
g22
sbag7
(g8
g9
NtRp2711
(dp2712
g12
g29
sg14
S'LMSans10'
p2713
sg16
I700
sg17
g13
sg18
g13
sg19
g2379
sg21
g22
sbag7
(g8
g9
NtRp2714
(dp2715
g12
g13
sg14
S'Nimbus Sans L'
p2716
sg16
I400
sg17
g188
sg18
g13
sg19
g2380
sg21
g22
sbag7
(g8
g9
NtRp2717
(dp2718
g12
g29
sg14
S'URW Bookman L'
p2719
sg16
I700
sg17
g13
sg18
g13
sg19
g2381
sg21
g22
sbag7
(g8
g9
NtRp2720
(dp2721
g12
g29
sg14
S'LMRomanDunh10'
p2722
sg16
I400
sg17
g13
sg18
g13
sg19
g2382
sg21
g22
sbag7
(g8
g9
NtRp2723
(dp2724
g12
g29
sg14
S'Nimbus Roman No9 L'
p2725
sg16
I700
sg17
g13
sg18
g13
sg19
g2383
sg21
g22
sbag7
(g8
g9
NtRp2726
(dp2727
g12
g13
sg14
S'LMMonoLtCond10'
p2728
sg16
I200
sg17
g188
sg18
g13
sg19
g2384
sg21
g22
sbag7
(g8
g9
NtRp2729
(dp2730
g12
g29
sg14
S'Courier 10 Pitch'
p2731
sg16
I400
sg17
g13
sg18
g13
sg19
g2385
sg21
g22
sbag7
(g8
g9
NtRp2732
(dp2733
g12
g13
sg14
S'URW Palladio L'
p2734
sg16
I700
sg17
g13
sg18
g13
sg19
g2386
sg21
g22
sbag7
(g8
g9
NtRp2735
(dp2736
g12
g29
sg14
S'Century Schoolbook L'
p2737
sg16
I700
sg17
g13
sg18
g13
sg19
g2387
sg21
g22
sbag7
(g8
g9
NtRp2738
(dp2739
g12
g13
sg14
S'Nimbus Mono L'
p2740
sg16
I700
sg17
g13
sg18
g13
sg19
g2388
sg21
g22
sbag7
(g8
g9
NtRp2741
(dp2742
g12
g13
sg14
S'LMSansQuot8'
p2743
sg16
I400
sg17
g13
sg18
g13
sg19
g2389
sg21
g22
sbag7
(g8
g9
NtRp2744
(dp2745
g12
g13
sg14
S'LMMonoPropLt10'
p2746
sg16
I200
sg17
g13
sg18
g13
sg19
g2390
sg21
g22
sbag7
(g8
g9
NtRp2747
(dp2748
g12
g13
sg14
S'URW Gothic L'
p2749
sg16
I600
sg17
g13
sg18
g13
sg19
g2391
sg21
g22
sbag7
(g8
g9
NtRp2750
(dp2751
g12
g29
sg14
S'LMRomanSlant10'
p2752
sg16
I400
sg17
g13
sg18
g13
sg19
g2392
sg21
g22
sbag7
(g8
g9
NtRp2753
(dp2754
g12
g13
sg14
S'Nimbus Roman No9 L'
p2755
sg16
I400
sg17
g13
sg18
g13
sg19
g2393
sg21
g22
sbag7
(g8
g9
NtRp2756
(dp2757
g12
g13
sg14
S'LMRomanCaps10'
p2758
sg16
I400
sg17
g13
sg18
g13
sg19
g2394
sg21
g22
sbag7
(g8
g9
NtRp2759
(dp2760
g12
g29
sg14
S'LMSans10'
p2761
sg16
I400
sg17
g13
sg18
g13
sg19
g2395
sg21
g22
sbag7
(g8
g9
NtRp2762
(dp2763
g12
g29
sg14
S'Nimbus Sans L'
p2764
sg16
I400
sg17
g13
sg18
g13
sg19
g2396
sg21
g22
sbag7
(g8
g9
NtRp2765
(dp2766
g12
g29
sg14
S'LMMonoLt10'
p2767
sg16
I700
sg17
g13
sg18
g13
sg19
g2397
sg21
g22
sbag7
(g8
g9
NtRp2768
(dp2769
g12
g13
sg14
S'Standard Symbols L'
p2770
sg16
I400
sg17
g13
sg18
g13
sg19
g2398
sg21
g22
sbag7
(g8
g9
NtRp2771
(dp2772
g12
g29
sg14
S'Nimbus Sans L'
p2773
sg16
I400
sg17
g188
sg18
g13
sg19
g2399
sg21
g22
sbag7
(g8
g9
NtRp2774
(dp2775
g12
g29
sg14
S'Courier 10 Pitch'
p2776
sg16
I700
sg17
g13
sg18
g13
sg19
g2400
sg21
g22
sbag7
(g8
g9
NtRp2777
(dp2778
g12
g29
sg14
S'LMRomanDemi10'
p2779
sg16
I600
sg17
g13
sg18
g13
sg19
g2401
sg21
g22
sbag7
(g8
g9
NtRp2780
(dp2781
g12
g29
sg14
S'URW Palladio L'
p2782
sg16
I400
sg17
g13
sg18
g13
sg19
g2402
sg21
g22
sbag7
(g8
g9
NtRp2783
(dp2784
g12
g29
sg14
S'LMRoman10'
p2785
sg16
I400
sg17
g13
sg18
g13
sg19
g2403
sg21
g22
sbag7
(g8
g9
NtRp2786
(dp2787
g12
g29
sg14
S'LMSansQuot8'
p2788
sg16
I700
sg17
g13
sg18
g13
sg19
g2405
sg21
g22
sbag7
(g8
g9
NtRp2789
(dp2790
g12
g13
sg14
S'URW Palladio L'
p2791
sg16
I500
sg17
g13
sg18
g13
sg19
g2406
sg21
g22
sbag7
(g8
g9
NtRp2792
(dp2793
g12
g13
sg14
S'LMRoman10'
p2794
sg16
I400
sg17
g13
sg18
g13
sg19
g2407
sg21
g22
sbag7
(g8
g9
NtRp2795
(dp2796
g12
g29
sg14
S'Bitstream Charter'
p2797
sg16
I400
sg17
g13
sg18
g13
sg19
g2408
sg21
g22
sbag7
(g8
g9
NtRp2798
(dp2799
g12
g13
sg14
S'URW Gothic L'
p2800
sg16
I400
sg17
g13
sg18
g13
sg19
g2409
sg21
g22
sbag7
(g8
g9
NtRp2801
(dp2802
g12
g13
sg14
S'LMMonoLt10'
p2803
sg16
I700
sg17
g13
sg18
g13
sg19
g2410
sg21
g22
sbag7
(g8
g9
NtRp2804
(dp2805
g12
g13
sg14
S'LMSansDemiCond10'
p2806
sg16
I600
sg17
g188
sg18
g13
sg19
g2411
sg21
g22
sbag7
(g8
g9
NtRp2807
(dp2808
g12
g13
sg14
S'LMSans10'
p2809
sg16
I700
sg17
g13
sg18
g13
sg19
g2412
sg21
g22
sbag7
(g8
g9
NtRp2810
(dp2811
g12
g29
sg14
S'Nimbus Sans L'
p2812
sg16
I700
sg17
g13
sg18
g13
sg19
g2413
sg21
g22
sbag7
(g8
g9
NtRp2813
(dp2814
g12
g13
sg14
S'LMMonoLt10'
p2815
sg16
I200
sg17
g13
sg18
g13
sg19
g2414
sg21
g22
sbag7
(g8
g9
NtRp2816
(dp2817
g12
g13
sg14
S'Nimbus Mono L'
p2818
sg16
I400
sg17
g13
sg18
g13
sg19
g2415
sg21
g22
sbag7
(g8
g9
NtRp2819
(dp2820
g12
g29
sg14
S'LMMonoSlant10'
p2821
sg16
I400
sg17
g13
sg18
g13
sg19
g2416
sg21
g22
sbag7
(g8
g9
NtRp2822
(dp2823
g12
g13
sg14
S'Nimbus Sans L'
p2824
sg16
I700
sg17
g188
sg18
g13
sg19
g2417
sg21
g22
sbag7
(g8
g9
NtRp2825
(dp2826
g12
g29
sg14
S'LMMonoPropLt10'
p2827
sg16
I200
sg17
g13
sg18
g13
sg19
g2418
sg21
g22
sbag7
(g8
g9
NtRp2828
(dp2829
g12
g13
sg14
S'Century Schoolbook L'
p2830
sg16
I500
sg17
g13
sg18
g13
sg19
g2419
sg21
g22
sbag7
(g8
g9
NtRp2831
(dp2832
g12
g29
sg14
S'Nimbus Roman No9 L'
p2833
sg16
I400
sg17
g13
sg18
g13
sg19
g2420
sg21
g22
sbag7
(g8
g9
NtRp2834
(dp2835
g12
g13
sg14
S'Nimbus Roman No9 L'
p2836
sg16
I700
sg17
g13
sg18
g13
sg19
g2421
sg21
g22
sbag7
(g8
g9
NtRp2837
(dp2838
g12
g29
sg14
S'LMMonoLt10'
p2839
sg16
I200
sg17
g13
sg18
g13
sg19
g2422
sg21
g22
sbag7
(g8
g9
NtRp2840
(dp2841
g12
g29
sg14
S'LMMonoCaps10'
p2842
sg16
I400
sg17
g13
sg18
g13
sg19
g2423
sg21
g22
sbag7
(g8
g9
NtRp2843
(dp2844
g12
g13
sg14
S'LMMonoPropLt10'
p2845
sg16
I700
sg17
g13
sg18
g13
sg19
g2424
sg21
g22
sbag7
(g8
g9
NtRp2846
(dp2847
g12
g29
sg14
S'LMMono10'
p2848
sg16
I400
sg17
g13
sg18
g13
sg19
g2425
sg21
g22
sbag7
(g8
g9
NtRp2849
(dp2850
g12
g13
sg14
S'Courier 10 Pitch'
p2851
sg16
I400
sg17
g13
sg18
g13
sg19
g2426
sg21
g22
sbag7
(g8
g9
NtRp2852
(dp2853
g12
g29
sg14
S'LMMonoLtCond10'
p2854
sg16
I200
sg17
g188
sg18
g13
sg19
g2427
sg21
g22
sbag7
(g8
g9
NtRp2855
(dp2856
g12
g13
sg14
S'Bitstream Charter'
p2857
sg16
I700
sg17
g13
sg18
g13
sg19
g2428
sg21
g22
sbag7
(g8
g9
NtRp2858
(dp2859
g12
g13
sg14
S'LMRomanUnsl10'
p2860
sg16
I400
sg17
g13
sg18
g13
sg19
g2429
sg21
g22
sbasb.